	.file	"rs485_hal.c"
	.option nopic
	.attribute arch, "rv32i2p1_m2p0_a2p1_c2p0_zicsr2p0_zifencei2p0_zba1p0_zbb1p0_zbc1p0_zbs1p0"
	.attribute unaligned_access, 0
	.attribute stack_align, 16
	.text
.Ltext0:
	.cfi_sections	.debug_frame
	.file 1 "C:\\sdk_env_v1.11.0\\hpm_sdk\\samples\\ethercat\\ecat_io\\application\\rs485_hal.c"
	.section	.text.uart_write_byte,"ax",@progbits
	.align	1
	.type	uart_write_byte, @function
uart_write_byte:
.LFB17:
	.file 2 "../../../../../drivers/inc/hpm_uart_drv.h"
	.loc 2 413 1
	.cfi_startproc
	addi	sp,sp,-16
	.cfi_def_cfa_offset 16
	sw	a0,12(sp)
	mv	a5,a1
	sb	a5,11(sp)
	.loc 2 414 16
	lbu	a4,11(sp)
	.loc 2 414 14
	lw	a5,12(sp)
	sw	a4,32(a5)
	.loc 2 415 1
	nop
	addi	sp,sp,16
	.cfi_def_cfa_offset 0
	jr	ra
	.cfi_endproc
.LFE17:
	.size	uart_write_byte, .-uart_write_byte
	.section	.text.uart_read_byte,"ax",@progbits
	.align	1
	.type	uart_read_byte, @function
uart_read_byte:
.LFB18:
	.loc 2 425 1
	.cfi_startproc
	addi	sp,sp,-16
	.cfi_def_cfa_offset 16
	sw	a0,12(sp)
	.loc 2 426 16
	lw	a5,12(sp)
	lw	a5,32(a5)
	.loc 2 426 22
	andi	a5,a5,0xff
	.loc 2 427 1
	mv	a0,a5
	addi	sp,sp,16
	.cfi_def_cfa_offset 0
	jr	ra
	.cfi_endproc
.LFE18:
	.size	uart_read_byte, .-uart_read_byte
	.section	.text.uart_enable_irq,"ax",@progbits
	.align	1
	.type	uart_enable_irq, @function
uart_enable_irq:
.LFB21:
	.loc 2 460 1
	.cfi_startproc
	addi	sp,sp,-16
	.cfi_def_cfa_offset 16
	sw	a0,12(sp)
	sw	a1,8(sp)
	.loc 2 461 8
	lw	a5,12(sp)
	lw	a4,36(a5)
	.loc 2 461 14
	lw	a5,8(sp)
	or	a4,a4,a5
	lw	a5,12(sp)
	sw	a4,36(a5)
	.loc 2 462 1
	nop
	addi	sp,sp,16
	.cfi_def_cfa_offset 0
	jr	ra
	.cfi_endproc
.LFE21:
	.size	uart_enable_irq, .-uart_enable_irq
	.section	.text.uart_get_irq_id,"ax",@progbits
	.align	1
	.type	uart_get_irq_id, @function
uart_get_irq_id:
.LFB23:
	.loc 2 482 1
	.cfi_startproc
	addi	sp,sp,-16
	.cfi_def_cfa_offset 16
	sw	a0,12(sp)
	.loc 2 483 16
	lw	a5,12(sp)
	lw	a5,40(a5)
	.loc 2 483 22
	andi	a5,a5,0xff
	andi	a5,a5,15
	andi	a5,a5,0xff
	.loc 2 484 1
	mv	a0,a5
	addi	sp,sp,16
	.cfi_def_cfa_offset 0
	jr	ra
	.cfi_endproc
.LFE23:
	.size	uart_get_irq_id, .-uart_get_irq_id
	.section	.text.uart_check_status,"ax",@progbits
	.align	1
	.type	uart_check_status, @function
uart_check_status:
.LFB33:
	.loc 2 633 1
	.cfi_startproc
	addi	sp,sp,-16
	.cfi_def_cfa_offset 16
	sw	a0,12(sp)
	mv	a5,a1
	sb	a5,11(sp)
	.loc 2 634 17
	lw	a5,12(sp)
	lw	a4,52(a5)
	.loc 2 634 23
	lbu	a5,11(sp)
	and	a5,a4,a5
	.loc 2 634 45
	snez	a5,a5
	andi	a5,a5,0xff
	.loc 2 635 1
	mv	a0,a5
	addi	sp,sp,16
	.cfi_def_cfa_offset 0
	jr	ra
	.cfi_endproc
.LFE33:
	.size	uart_check_status, .-uart_check_status
	.section	.text.gpio_write_pin,"ax",@progbits
	.align	1
	.type	gpio_write_pin, @function
gpio_write_pin:
.LFB70:
	.file 3 "../../../../../drivers/inc/hpm_gpio_drv.h"
	.loc 3 95 1
	.cfi_startproc
	addi	sp,sp,-16
	.cfi_def_cfa_offset 16
	sw	a0,12(sp)
	sw	a1,8(sp)
	mv	a5,a2
	mv	a4,a3
	sb	a5,7(sp)
	mv	a5,a4
	sb	a5,6(sp)
	.loc 3 96 8
	lbu	a5,6(sp)
	beq	a5,zero,.L10
	.loc 3 97 31
	lbu	a5,7(sp)
	li	a4,1
	sll	a5,a4,a5
	mv	a3,a5
	.loc 3 97 27
	lw	a4,12(sp)
	lw	a5,8(sp)
	addi	a5,a5,16
	slli	a5,a5,4
	add	a5,a4,a5
	sw	a3,4(a5)
	.loc 3 101 1
	j	.L12
.L10:
	.loc 3 99 33
	lbu	a5,7(sp)
	li	a4,1
	sll	a5,a4,a5
	mv	a3,a5
	.loc 3 99 29
	lw	a4,12(sp)
	lw	a5,8(sp)
	addi	a5,a5,16
	slli	a5,a5,4
	add	a5,a4,a5
	sw	a3,8(a5)
.L12:
	.loc 3 101 1
	nop
	addi	sp,sp,16
	.cfi_def_cfa_offset 0
	jr	ra
	.cfi_endproc
.LFE70:
	.size	gpio_write_pin, .-gpio_write_pin
	.section	.text.gpio_set_pin_output,"ax",@progbits
	.align	1
	.type	gpio_set_pin_output, @function
gpio_set_pin_output:
.LFB72:
	.loc 3 123 1
	.cfi_startproc
	addi	sp,sp,-16
	.cfi_def_cfa_offset 16
	sw	a0,12(sp)
	sw	a1,8(sp)
	mv	a5,a2
	sb	a5,7(sp)
	.loc 3 124 27
	lbu	a5,7(sp)
	li	a4,1
	sll	a5,a4,a5
	mv	a3,a5
	.loc 3 124 23
	lw	a4,12(sp)
	lw	a5,8(sp)
	addi	a5,a5,32
	slli	a5,a5,4
	add	a5,a4,a5
	sw	a3,4(a5)
	.loc 3 125 1
	nop
	addi	sp,sp,16
	.cfi_def_cfa_offset 0
	jr	ra
	.cfi_endproc
.LFE72:
	.size	gpio_set_pin_output, .-gpio_set_pin_output
	.section	.bss.sg_rs485_rx_buf,"aw",@nobits
	.align	2
	.type	sg_rs485_rx_buf, @object
	.size	sg_rs485_rx_buf, 256
sg_rs485_rx_buf:
	.zero	256
	.section	.sbss.sg_rs485_rx_len,"aw",@nobits
	.align	1
	.type	sg_rs485_rx_len, @object
	.size	sg_rs485_rx_len, 2
sg_rs485_rx_len:
	.zero	2
	.section	.text.RS485_SetMode_TX,"ax",@progbits
	.align	1
	.type	RS485_SetMode_TX, @function
RS485_SetMode_TX:
.LFB268:
	.loc 1 13 1
	.cfi_startproc
	addi	sp,sp,-16
	.cfi_def_cfa_offset 16
	sw	ra,12(sp)
	.cfi_offset 1, -4
	.loc 1 15 5
	li	a3,1
	li	a2,22
	li	a1,0
	li	a0,-267583488
	call	gpio_write_pin
	.loc 1 16 1
	nop
	lw	ra,12(sp)
	.cfi_restore 1
	addi	sp,sp,16
	.cfi_def_cfa_offset 0
	jr	ra
	.cfi_endproc
.LFE268:
	.size	RS485_SetMode_TX, .-RS485_SetMode_TX
	.section	.text.RS485_SetMode_RX,"ax",@progbits
	.align	1
	.type	RS485_SetMode_RX, @function
RS485_SetMode_RX:
.LFB269:
	.loc 1 20 1
	.cfi_startproc
	addi	sp,sp,-16
	.cfi_def_cfa_offset 16
	sw	ra,12(sp)
	.cfi_offset 1, -4
	.loc 1 22 5
	li	a3,0
	li	a2,22
	li	a1,0
	li	a0,-267583488
	call	gpio_write_pin
	.loc 1 23 1
	nop
	lw	ra,12(sp)
	.cfi_restore 1
	addi	sp,sp,16
	.cfi_def_cfa_offset 0
	jr	ra
	.cfi_endproc
.LFE269:
	.size	RS485_SetMode_RX, .-RS485_SetMode_RX
	.section	.text.RS485_Init,"ax",@progbits
	.align	1
	.globl	RS485_Init
	.type	RS485_Init, @function
RS485_Init:
.LFB270:
	.loc 1 27 1
	.cfi_startproc
	addi	sp,sp,-128
	.cfi_def_cfa_offset 128
	sw	ra,124(sp)
	.cfi_offset 1, -4
	sw	a0,12(sp)
	.loc 1 30 5
	li	a0,-268107776
	call	board_init_uart
	.loc 1 33 12
	li	a5,-201064448
	.loc 1 33 41
	sw	zero,176(a5)
	.loc 1 34 5
	li	a2,22
	li	a1,0
	li	a0,-267583488
	call	gpio_set_pin_output
	.loc 1 35 5
	call	RS485_SetMode_RX
	.loc 1 38 21
	li	a5,18481152
	addi	a0,a5,24
	call	clock_get_frequency
	sw	a0,108(sp)
	.loc 1 42 5
	addi	a5,sp,28
	mv	a1,a5
	li	a0,-268107776
	call	uart_default_config
	.loc 1 43 21
	lw	a5,12(sp)
	sw	a5,32(sp)
	.loc 1 44 27
	lw	a5,108(sp)
	sw	a5,28(sp)
	.loc 1 45 24
	li	a5,1
	sb	a5,42(sp)
	.loc 1 46 5
	addi	a5,sp,28
	mv	a1,a5
	li	a0,-268107776
	call	uart_init
	.loc 1 49 5
	li	a1,1
	li	a0,-268107776
	call	uart_enable_irq
	li	a5,23
	sw	a5,76(sp)
	li	a5,2
	sw	a5,72(sp)
	li	a5,-469762048
	sw	a5,68(sp)
	lw	a5,76(sp)
	sw	a5,64(sp)
	lw	a5,72(sp)
	sw	a5,60(sp)
.LBB24:
.LBB25:
.LBB26:
.LBB27:
	.file 4 "../../../../../soc/HPM5E00/HPM5E31/hpm_plic_drv.h"
	.loc 4 109 45
	lw	a5,64(sp)
	addi	a5,a5,-1
	.loc 4 109 49
	slli	a4,a5,2
	.loc 4 109 38
	lw	a5,68(sp)
	add	a5,a4,a5
	addi	a5,a5,4
	.loc 4 108 24
	sw	a5,56(sp)
	.loc 4 110 19
	lw	a5,56(sp)
	lw	a4,60(sp)
	sw	a4,0(a5)
	.loc 4 111 1
	nop
.LBE27:
.LBE26:
	.file 5 "../../../../../arch/riscv/intc/hpm_interrupt.h"
	.loc 5 413 1
	nop
	sw	zero,104(sp)
	li	a5,23
	sw	a5,100(sp)
	li	a5,-469762048
	sw	a5,96(sp)
	lw	a5,104(sp)
	sw	a5,92(sp)
	lw	a5,100(sp)
	sw	a5,88(sp)
.LBE25:
.LBE24:
.LBB28:
.LBB29:
.LBB30:
.LBB31:
	.loc 4 169 21
	lw	a5,92(sp)
	slli	a4,a5,7
	.loc 4 168 36
	lw	a5,96(sp)
	add	a4,a4,a5
	.loc 4 170 19
	lw	a5,88(sp)
	srli	a5,a5,5
	.loc 4 170 25
	slli	a5,a5,2
	.loc 4 169 58
	add	a4,a4,a5
	li	a5,8192
	add	a5,a4,a5
	.loc 4 167 24
	sw	a5,84(sp)
	.loc 4 171 14
	lw	a5,84(sp)
	lw	a5,0(a5)
	sw	a5,80(sp)
	.loc 4 172 36
	lw	a5,88(sp)
	andi	a5,a5,31
	.loc 4 172 28
	li	a4,1
	sll	a5,a4,a5
	mv	a4,a5
	.loc 4 172 13
	lw	a5,80(sp)
	or	a5,a5,a4
	sw	a5,80(sp)
	.loc 4 173 18
	lw	a5,84(sp)
	lw	a4,80(sp)
	sw	a4,0(a5)
	.loc 4 174 1
	nop
.LBE31:
.LBE30:
	.loc 5 402 1
	nop
.LBE29:
.LBE28:
	.loc 1 51 1
	nop
	lw	ra,124(sp)
	.cfi_restore 1
	addi	sp,sp,128
	.cfi_def_cfa_offset 0
	jr	ra
	.cfi_endproc
.LFE270:
	.size	RS485_Init, .-RS485_Init
	.section	.text.RS485_SetBaudrate,"ax",@progbits
	.align	1
	.globl	RS485_SetBaudrate
	.type	RS485_SetBaudrate, @function
RS485_SetBaudrate:
.LFB271:
	.loc 1 55 1
	.cfi_startproc
	addi	sp,sp,-32
	.cfi_def_cfa_offset 32
	sw	ra,28(sp)
	.cfi_offset 1, -4
	sw	a0,12(sp)
	.loc 1 56 5
	li	a5,18481152
	addi	a0,a5,24
	call	clock_get_frequency
	mv	a5,a0
	.loc 1 56 5 is_stmt 0 discriminator 1
	mv	a2,a5
	lw	a1,12(sp)
	li	a0,-268107776
	call	uart_set_baudrate
	.loc 1 57 1 is_stmt 1
	nop
	lw	ra,28(sp)
	.cfi_restore 1
	addi	sp,sp,32
	.cfi_def_cfa_offset 0
	jr	ra
	.cfi_endproc
.LFE271:
	.size	RS485_SetBaudrate, .-RS485_SetBaudrate
	.section	.text.RS485_SendData,"ax",@progbits
	.align	1
	.globl	RS485_SendData
	.type	RS485_SendData, @function
RS485_SendData:
.LFB272:
	.loc 1 61 1
	.cfi_startproc
	addi	sp,sp,-48
	.cfi_def_cfa_offset 48
	sw	ra,44(sp)
	.cfi_offset 1, -4
	sw	a0,12(sp)
	mv	a5,a1
	sh	a5,10(sp)
	.loc 1 62 8
	lhu	a5,10(sp)
	beq	a5,zero,.L24
	.loc 1 62 18 discriminator 2
	lw	a5,12(sp)
	beq	a5,zero,.L24
	.loc 1 65 5
	call	RS485_SetMode_TX
.LBB32:
	.loc 1 68 19
	sh	zero,30(sp)
	.loc 1 68 5
	j	.L22
.L23:
	.loc 1 69 41
	lhu	a5,30(sp)
	lw	a4,12(sp)
	add	a5,a4,a5
	.loc 1 69 9
	lbu	a5,0(a5)
	mv	a1,a5
	li	a0,-268107776
	call	uart_write_byte
	.loc 1 68 36 discriminator 3
	lhu	a5,30(sp)
	addi	a5,a5,1
	sh	a5,30(sp)
.L22:
	.loc 1 68 28 discriminator 1
	lhu	a4,30(sp)
	lhu	a5,10(sp)
	bltu	a4,a5,.L23
.LBE32:
	.loc 1 73 5
	li	a0,-268107776
	call	uart_flush
	.loc 1 76 5
	call	RS485_SetMode_RX
	j	.L18
.L24:
	.loc 1 62 35
	nop
.L18:
	.loc 1 77 1
	lw	ra,44(sp)
	.cfi_restore 1
	addi	sp,sp,48
	.cfi_def_cfa_offset 0
	jr	ra
	.cfi_endproc
.LFE272:
	.size	RS485_SendData, .-RS485_SendData
	.section	.text.RS485_ReadData,"ax",@progbits
	.align	1
	.globl	RS485_ReadData
	.type	RS485_ReadData, @function
RS485_ReadData:
.LFB273:
	.loc 1 81 1
	.cfi_startproc
	addi	sp,sp,-96
	.cfi_def_cfa_offset 96
	sw	ra,92(sp)
	.cfi_offset 1, -4
	sw	a0,12(sp)
	.loc 1 82 14
	sh	zero,78(sp)
	sw	zero,72(sp)
	li	a5,23
	sw	a5,68(sp)
	li	a5,-469762048
	sw	a5,64(sp)
	lw	a5,72(sp)
	sw	a5,60(sp)
	lw	a5,68(sp)
	sw	a5,56(sp)
.LBB33:
.LBB34:
.LBB35:
.LBB36:
	.loc 4 190 21
	lw	a5,60(sp)
	slli	a4,a5,7
	.loc 4 189 36
	lw	a5,64(sp)
	add	a4,a4,a5
	.loc 4 191 19
	lw	a5,56(sp)
	srli	a5,a5,5
	.loc 4 191 25
	slli	a5,a5,2
	.loc 4 190 58
	add	a4,a4,a5
	li	a5,8192
	add	a5,a4,a5
	.loc 4 188 24
	sw	a5,52(sp)
	.loc 4 192 14
	lw	a5,52(sp)
	lw	a5,0(a5)
	sw	a5,48(sp)
	.loc 4 193 38
	lw	a5,56(sp)
	andi	a5,a5,31
	.loc 4 193 30
	li	a4,1
	sll	a5,a4,a5
	.loc 4 193 25
	not	a5,a5
	mv	a4,a5
	.loc 4 193 13
	lw	a5,48(sp)
	and	a5,a5,a4
	sw	a5,48(sp)
	.loc 4 194 18
	lw	a5,52(sp)
	lw	a4,48(sp)
	sw	a4,0(a5)
	.loc 4 195 1
	nop
.LBE36:
.LBE35:
	.loc 5 424 1
	nop
.LBE34:
.LBE33:
	.loc 1 86 25
	lui	a5,%hi(sg_rs485_rx_len)
	lhu	a5,%lo(sg_rs485_rx_len)(a5)
	.loc 1 86 8
	beq	a5,zero,.L26
	.loc 1 87 9
	lui	a5,%hi(sg_rs485_rx_len)
	lhu	a5,%lo(sg_rs485_rx_len)(a5)
	mv	a2,a5
	lui	a5,%hi(sg_rs485_rx_buf)
	addi	a1,a5,%lo(sg_rs485_rx_buf)
	lw	a0,12(sp)
	call	memcpy
	.loc 1 88 13
	lui	a5,%hi(sg_rs485_rx_len)
	lhu	a5,%lo(sg_rs485_rx_len)(a5)
	sh	a5,78(sp)
	.loc 1 89 25
	lui	a5,%hi(sg_rs485_rx_len)
	sh	zero,%lo(sg_rs485_rx_len)(a5)
.L26:
	sw	zero,44(sp)
	li	a5,23
	sw	a5,40(sp)
	li	a5,-469762048
	sw	a5,36(sp)
	lw	a5,44(sp)
	sw	a5,32(sp)
	lw	a5,40(sp)
	sw	a5,28(sp)
.LBB37:
.LBB38:
.LBB39:
.LBB40:
	.loc 4 169 21
	lw	a5,32(sp)
	slli	a4,a5,7
	.loc 4 168 36
	lw	a5,36(sp)
	add	a4,a4,a5
	.loc 4 170 19
	lw	a5,28(sp)
	srli	a5,a5,5
	.loc 4 170 25
	slli	a5,a5,2
	.loc 4 169 58
	add	a4,a4,a5
	li	a5,8192
	add	a5,a4,a5
	.loc 4 167 24
	sw	a5,24(sp)
	.loc 4 171 14
	lw	a5,24(sp)
	lw	a5,0(a5)
	sw	a5,20(sp)
	.loc 4 172 36
	lw	a5,28(sp)
	andi	a5,a5,31
	.loc 4 172 28
	li	a4,1
	sll	a5,a4,a5
	mv	a4,a5
	.loc 4 172 13
	lw	a5,20(sp)
	or	a5,a5,a4
	sw	a5,20(sp)
	.loc 4 173 18
	lw	a5,24(sp)
	lw	a4,20(sp)
	sw	a4,0(a5)
	.loc 4 174 1
	nop
.LBE40:
.LBE39:
	.loc 5 402 1
	nop
.LBE38:
.LBE37:
	.loc 1 93 12
	lhu	a5,78(sp)
	.loc 1 94 1
	mv	a0,a5
	lw	ra,92(sp)
	.cfi_restore 1
	addi	sp,sp,96
	.cfi_def_cfa_offset 0
	jr	ra
	.cfi_endproc
.LFE273:
	.size	RS485_ReadData, .-RS485_ReadData
	.section	.isr_vector,"ax",@progbits
	.align	1
	.globl	isr_uart4
	.type	isr_uart4, @function
isr_uart4:
.LFB274:
	.loc 1 98 1
	.cfi_startproc
	addi	sp,sp,-32
	.cfi_def_cfa_offset 32
	sw	ra,28(sp)
	.cfi_offset 1, -4
	.loc 1 102 9
	li	a1,1
	li	a0,-268107776
	call	uart_check_status
	mv	a5,a0
	.loc 1 102 8 discriminator 1
	bne	a5,zero,.L31
	.loc 1 103 10
	li	a0,-268107776
	call	uart_get_irq_id
	mv	a5,a0
	mv	a4,a5
	.loc 1 102 61 discriminator 1
	li	a5,12
	bne	a4,a5,.L34
	.loc 1 106 15
	j	.L31
.L33:
	.loc 1 107 17
	li	a0,-268107776
	call	uart_read_byte
	mv	a5,a0
	sb	a5,15(sp)
	.loc 1 108 33
	lui	a5,%hi(sg_rs485_rx_len)
	lhu	a4,%lo(sg_rs485_rx_len)(a5)
	.loc 1 108 16
	li	a5,255
	bgtu	a4,a5,.L32
	.loc 1 109 48
	lui	a5,%hi(sg_rs485_rx_len)
	lhu	a5,%lo(sg_rs485_rx_len)(a5)
	addi	a4,a5,1
	zext.h	a3,a4
	lui	a4,%hi(sg_rs485_rx_len)
	sh	a3,%lo(sg_rs485_rx_len)(a4)
	mv	a4,a5
	.loc 1 109 52
	lui	a5,%hi(sg_rs485_rx_buf)
	addi	a5,a5,%lo(sg_rs485_rx_buf)
	add	a5,a5,a4
	lbu	a4,15(sp)
	sb	a4,0(a5)
	j	.L31
.L32:
	.loc 1 111 33
	lui	a5,%hi(sg_rs485_rx_len)
	sh	zero,%lo(sg_rs485_rx_len)(a5)
.L31:
	.loc 1 106 16
	li	a1,1
	li	a0,-268107776
	call	uart_check_status
	mv	a5,a0
	.loc 1 106 16 is_stmt 0 discriminator 1
	bne	a5,zero,.L33
.L34:
	.loc 1 115 1 is_stmt 1
	nop
	lw	ra,28(sp)
	.cfi_restore 1
	addi	sp,sp,32
	.cfi_def_cfa_offset 0
	jr	ra
	.cfi_endproc
.LFE274:
	.size	isr_uart4, .-isr_uart4
	.align	2
	.globl	default_isr_23
	.type	default_isr_23, @function
default_isr_23:
.LFB275:
	.loc 1 116 1
	.cfi_startproc
	.loc 1 116 1
 #APP
# 116 "C:\sdk_env_v1.11.0\hpm_sdk\samples\ethercat\ecat_io\application\rs485_hal.c" 1
	addi sp, sp, -96
# 0 "" 2
# 116 "C:\sdk_env_v1.11.0\hpm_sdk\samples\ethercat\ecat_io\application\rs485_hal.c" 1
	
            c.swsp ra,  0*4(sp) 
            c.swsp t0,  1*4(sp) 
            c.swsp t1,  2*4(sp) 
            c.swsp t2,  3*4(sp) 
            c.swsp s1,  4*4(sp) 
            c.swsp a0,  5*4(sp) 
            c.swsp a1,  6*4(sp) 
            c.swsp a2,  7*4(sp) 
            c.swsp a3,  8*4(sp) 
            c.swsp a4,  9*4(sp) 
            c.swsp a5, 10*4(sp) 
            c.swsp a6, 11*4(sp) 
            c.swsp a7, 12*4(sp) 
            c.swsp s2, 13*4(sp) 
            c.swsp s3, 14*4(sp) 
            c.swsp s4, 15*4(sp) 
            c.swsp s5, 16*4(sp) 
            c.swsp s6, 17*4(sp) 
            c.swsp t3, 18*4(sp) 
            c.swsp t4, 19*4(sp) 
            c.swsp t5, 20*4(sp) 
            c.swsp t6, 21*4(sp)
# 0 "" 2
# 116 "C:\sdk_env_v1.11.0\hpm_sdk\samples\ethercat\ecat_io\application\rs485_hal.c" 1
	
            csrr s2, mepc    
            csrr s3, mstatus 

# 0 "" 2
# 116 "C:\sdk_env_v1.11.0\hpm_sdk\samples\ethercat\ecat_io\application\rs485_hal.c" 1
	csrrs s5, 1995, x0

# 0 "" 2
# 116 "C:\sdk_env_v1.11.0\hpm_sdk\samples\ethercat\ecat_io\application\rs485_hal.c" 1
	csrrs s6, 1997, x0

# 0 "" 2
# 116 "C:\sdk_env_v1.11.0\hpm_sdk\samples\ethercat\ecat_io\application\rs485_hal.c" 1
	csrsi mstatus, 8
# 0 "" 2
# 116 "C:\sdk_env_v1.11.0\hpm_sdk\samples\ethercat\ecat_io\application\rs485_hal.c" 1
	la t1, isr_uart4
	
# 0 "" 2
# 116 "C:\sdk_env_v1.11.0\hpm_sdk\samples\ethercat\ecat_io\application\rs485_hal.c" 1
	jalr t1

# 0 "" 2
# 116 "C:\sdk_env_v1.11.0\hpm_sdk\samples\ethercat\ecat_io\application\rs485_hal.c" 1
	csrci mstatus, 8
# 0 "" 2
# 116 "C:\sdk_env_v1.11.0\hpm_sdk\samples\ethercat\ecat_io\application\rs485_hal.c" 1
	lui a4, 0xe4200
# 0 "" 2
# 116 "C:\sdk_env_v1.11.0\hpm_sdk\samples\ethercat\ecat_io\application\rs485_hal.c" 1
	li a3, 23
# 0 "" 2
# 116 "C:\sdk_env_v1.11.0\hpm_sdk\samples\ethercat\ecat_io\application\rs485_hal.c" 1
	sw a3, 4(a4)
# 0 "" 2
# 116 "C:\sdk_env_v1.11.0\hpm_sdk\samples\ethercat\ecat_io\application\rs485_hal.c" 1
	
            csrw mstatus, s3 
            csrw mepc, s2 

# 0 "" 2
# 116 "C:\sdk_env_v1.11.0\hpm_sdk\samples\ethercat\ecat_io\application\rs485_hal.c" 1
	csrw 1997, s6

# 0 "" 2
# 116 "C:\sdk_env_v1.11.0\hpm_sdk\samples\ethercat\ecat_io\application\rs485_hal.c" 1
	csrw 1995, s5

# 0 "" 2
# 116 "C:\sdk_env_v1.11.0\hpm_sdk\samples\ethercat\ecat_io\application\rs485_hal.c" 1
	
            c.lwsp ra,  0*4(sp) 
            c.lwsp t0,  1*4(sp) 
            c.lwsp t1,  2*4(sp) 
            c.lwsp t2,  3*4(sp) 
            c.lwsp s1,  4*4(sp) 
            c.lwsp a0,  5*4(sp) 
            c.lwsp a1,  6*4(sp) 
            c.lwsp a2,  7*4(sp) 
            c.lwsp a3,  8*4(sp) 
            c.lwsp a4,  9*4(sp) 
            c.lwsp a5, 10*4(sp) 
            c.lwsp a6, 11*4(sp) 
            c.lwsp a7, 12*4(sp) 
            c.lwsp s2, 13*4(sp) 
            c.lwsp s3, 14*4(sp) 
            c.lwsp s4, 15*4(sp) 
            c.lwsp s5, 16*4(sp) 
            c.lwsp s6, 17*4(sp) 
            c.lwsp t3, 18*4(sp) 
            c.lwsp t4, 19*4(sp) 
            c.lwsp t5, 20*4(sp) 
            c.lwsp t6, 21*4(sp) 

# 0 "" 2
# 116 "C:\sdk_env_v1.11.0\hpm_sdk\samples\ethercat\ecat_io\application\rs485_hal.c" 1
	addi sp, sp, 96
# 0 "" 2
# 116 "C:\sdk_env_v1.11.0\hpm_sdk\samples\ethercat\ecat_io\application\rs485_hal.c" 1
	fence io, io
# 0 "" 2
 #NO_APP
	mret
	.cfi_endproc
.LFE275:
	.size	default_isr_23, .-default_isr_23
	.text
.Letext0:
	.file 6 "C:/Program Files/SEGGER/SEGGER Embedded Studio 8.26b/include/stdint.h"
	.file 7 "C:/Program Files/SEGGER/SEGGER Embedded Studio 8.26b/include/string.h"
	.file 8 "../../../../../drivers/inc/hpm_common.h"
	.file 9 "../../../../../soc/HPM5E00/ip/hpm_uart_regs.h"
	.file 10 "../../../../../soc/HPM5E00/ip/hpm_gpio_regs.h"
	.file 11 "../../../../../soc/HPM5E00/ip/hpm_ioc_regs.h"
	.file 12 "../../../../../soc/HPM5E00/HPM5E31/hpm_sysctl_drv.h"
	.file 13 "../../../../../soc/HPM5E00/HPM5E31/hpm_clock_drv.h"
	.file 14 "../../../../../boards/hpm5e00evk/board.h"