
C:/sdk_env_v1.11.0/hpm_sdk/samples/ethercat/ecat_rs485_gateway/hpm5e00evk_flash_xip_debug/output/demo.elf:     file format elf32-littleriscv


Disassembly of section .start:

80003000 <_start>:

_start:
    /* Initialize global pointer */
    .option push
    .option norelax
    la gp, __global_pointer$
80003000:	811fe197          	auipc	gp,0x811fe
80003004:	80018193          	add	gp,gp,-2048 # 1200800 <__global_pointer$>
    la tp, __thread_pointer$
80003008:	811fe217          	auipc	tp,0x811fe
8000300c:	02820213          	add	tp,tp,40 # 1201030 <e2p_dummy>
    .option pop

    /* reset mstatus to 0*/
    csrrw x0, mstatus, x0
80003010:	30001073          	csrw	mstatus,zero
    /* Initialize FCSR */
    fscsr zero
#endif

    /* Initialize stack pointer */
    la t0, _stack
80003014:	80205297          	auipc	t0,0x80205
80003018:	fec28293          	add	t0,t0,-20 # 208000 <_stack>
    mv sp, t0
8000301c:	8116                	mv	sp,t0

#ifdef CONFIG_NOT_ENABLE_ICACHE
    call l1c_ic_disable
#else
    call l1c_ic_enable
8000301e:	490030ef          	jal	800064ae <l1c_ic_enable>
#endif
#ifdef CONFIG_NOT_ENABLE_DCACHE
    call l1c_dc_invalidate_all
    call l1c_dc_disable
#else
    call l1c_dc_enable
80003022:	458030ef          	jal	8000647a <l1c_dc_enable>
    call l1c_dc_invalidate_all
80003026:	4b6030ef          	jal	800064dc <l1c_dc_invalidate_all>

    /*
     * Initialize LMA/VMA sections.
     * Relocation for any sections that need to be copied from LMA to VMA.
     */
    call c_startup
8000302a:	136030ef          	jal	80006160 <c_startup>
    la t1, __SEGGER_RTL_init_heap
    jalr t1
#endif

    /* Do global constructors */
    call __libc_init_array
8000302e:	002030ef          	jal	80006030 <__libc_init_array>

#ifndef NO_CLEANUP_AT_START
    /* clean up */
    call _clean_up
80003032:	084030ef          	jal	800060b6 <_clean_up>
    #define HANDLER_S_TRAP irq_handler_s_trap
#endif

#if !defined(USE_NONVECTOR_MODE) || (USE_NONVECTOR_MODE == 0)
    /* Initial machine trap-vector Base */
    la t0, __vector_table
80003036:	00000293          	li	t0,0
    csrw mtvec, t0
8000303a:	30529073          	csrw	mtvec,t0
#if defined (USE_S_MODE_IRQ)
    la t0, __vector_s_table
    csrw stvec, t0
#endif
    /* Enable vectored external PLIC interrupt */
    csrsi CSR_MMISC_CTL, 2
8000303e:	7d016073          	csrs	0x7d0,2
    /* Disable vectored external PLIC interrupt */
    csrci CSR_MMISC_CTL, 2
#endif

    /* System reset handler */
    call reset_handler
80003042:	370030ef          	jal	800063b2 <reset_handler>

    /* Infinite loop, if returned accidentally */
1:    j 1b
80003046:	a001                	j	80003046 <_start+0x46>

80003048 <exit>:

    .weak exit
exit:
1:    j 1b
80003048:	a001                	j	80003048 <exit>
8000304a:	0000                	unimp
8000304c:	0000                	unimp
	...

Disassembly of section .vectors:

00000000 <__vector_ram_start__>:
   0:	014c                	add	a1,sp,132
   2:	0000                	unimp
   4:	0148                	add	a0,sp,132
   6:	0000                	unimp
   8:	0148                	add	a0,sp,132
   a:	0000                	unimp
   c:	0148                	add	a0,sp,132
   e:	0000                	unimp
  10:	0148                	add	a0,sp,132
  12:	0000                	unimp
  14:	0148                	add	a0,sp,132
  16:	0000                	unimp
  18:	0148                	add	a0,sp,132
  1a:	0000                	unimp
  1c:	0148                	add	a0,sp,132
  1e:	0000                	unimp
  20:	0148                	add	a0,sp,132
  22:	0000                	unimp
  24:	0148                	add	a0,sp,132
  26:	0000                	unimp
  28:	0148                	add	a0,sp,132
  2a:	0000                	unimp
  2c:	03c8                	add	a0,sp,452
  2e:	0000                	unimp
  30:	0148                	add	a0,sp,132
  32:	0000                	unimp
  34:	0148                	add	a0,sp,132
  36:	0000                	unimp
  38:	02e0                	add	s0,sp,332
  3a:	0000                	unimp
  3c:	0148                	add	a0,sp,132
  3e:	0000                	unimp
  40:	0148                	add	a0,sp,132
  42:	0000                	unimp
  44:	0148                	add	a0,sp,132
  46:	0000                	unimp
  48:	0148                	add	a0,sp,132
  4a:	0000                	unimp
  4c:	0828                	add	a0,sp,24
  4e:	0000                	unimp
  50:	0148                	add	a0,sp,132
  52:	0000                	unimp
  54:	0148                	add	a0,sp,132
  56:	0000                	unimp
  58:	0148                	add	a0,sp,132
  5a:	0000                	unimp
  5c:	0148                	add	a0,sp,132
  5e:	0000                	unimp
  60:	0148                	add	a0,sp,132
  62:	0000                	unimp
  64:	0148                	add	a0,sp,132
  66:	0000                	unimp
  68:	0148                	add	a0,sp,132
  6a:	0000                	unimp
  6c:	0148                	add	a0,sp,132
  6e:	0000                	unimp
  70:	0148                	add	a0,sp,132
  72:	0000                	unimp
  74:	0148                	add	a0,sp,132
  76:	0000                	unimp
  78:	0148                	add	a0,sp,132
  7a:	0000                	unimp
  7c:	0148                	add	a0,sp,132
  7e:	0000                	unimp
  80:	0148                	add	a0,sp,132
  82:	0000                	unimp
  84:	0148                	add	a0,sp,132
  86:	0000                	unimp
  88:	0148                	add	a0,sp,132
  8a:	0000                	unimp
  8c:	0148                	add	a0,sp,132
  8e:	0000                	unimp
  90:	0148                	add	a0,sp,132
  92:	0000                	unimp
  94:	0148                	add	a0,sp,132
  96:	0000                	unimp
  98:	0148                	add	a0,sp,132
  9a:	0000                	unimp
  9c:	0148                	add	a0,sp,132
  9e:	0000                	unimp
  a0:	0148                	add	a0,sp,132
  a2:	0000                	unimp
  a4:	0148                	add	a0,sp,132
  a6:	0000                	unimp
  a8:	0148                	add	a0,sp,132
  aa:	0000                	unimp
  ac:	0148                	add	a0,sp,132
  ae:	0000                	unimp
  b0:	0148                	add	a0,sp,132
  b2:	0000                	unimp
  b4:	0148                	add	a0,sp,132
  b6:	0000                	unimp
  b8:	0148                	add	a0,sp,132
  ba:	0000                	unimp
  bc:	0148                	add	a0,sp,132
  be:	0000                	unimp
  c0:	0148                	add	a0,sp,132
  c2:	0000                	unimp
  c4:	0148                	add	a0,sp,132
  c6:	0000                	unimp
  c8:	0148                	add	a0,sp,132
  ca:	0000                	unimp
  cc:	0148                	add	a0,sp,132
  ce:	0000                	unimp
  d0:	0148                	add	a0,sp,132
  d2:	0000                	unimp
  d4:	0148                	add	a0,sp,132
  d6:	0000                	unimp
  d8:	0148                	add	a0,sp,132
  da:	0000                	unimp
  dc:	0148                	add	a0,sp,132
  de:	0000                	unimp
  e0:	0148                	add	a0,sp,132
  e2:	0000                	unimp
  e4:	0148                	add	a0,sp,132
  e6:	0000                	unimp
  e8:	0148                	add	a0,sp,132
  ea:	0000                	unimp
  ec:	0148                	add	a0,sp,132
  ee:	0000                	unimp
  f0:	0148                	add	a0,sp,132
  f2:	0000                	unimp
  f4:	047c                	add	a5,sp,524
  f6:	0000                	unimp
  f8:	0554                	add	a3,sp,644
  fa:	0000                	unimp
  fc:	062c                	add	a1,sp,776
  fe:	0000                	unimp
 100:	06e8                	add	a0,sp,844
 102:	0000                	unimp
 104:	0148                	add	a0,sp,132
 106:	0000                	unimp
 108:	0148                	add	a0,sp,132
 10a:	0000                	unimp
 10c:	0148                	add	a0,sp,132
 10e:	0000                	unimp
 110:	0148                	add	a0,sp,132
 112:	0000                	unimp
 114:	0148                	add	a0,sp,132
 116:	0000                	unimp
 118:	0148                	add	a0,sp,132
 11a:	0000                	unimp
 11c:	0148                	add	a0,sp,132
 11e:	0000                	unimp
 120:	0148                	add	a0,sp,132
 122:	0000                	unimp
 124:	0148                	add	a0,sp,132
 126:	0000                	unimp
 128:	0148                	add	a0,sp,132
 12a:	0000                	unimp
 12c:	0148                	add	a0,sp,132
 12e:	0000                	unimp
 130:	0148                	add	a0,sp,132
 132:	0000                	unimp
 134:	0148                	add	a0,sp,132
 136:	0000                	unimp
 138:	0148                	add	a0,sp,132
 13a:	0000                	unimp
 13c:	0148                	add	a0,sp,132
	...

00000140 <default_irq_s_handler>:
 140:	a001                	j	140 <default_irq_s_handler>
	...

00000144 <nmi_handler>:

    .section .isr_vector, "ax"
    .weak nmi_handler
nmi_handler:
1:    j 1b
 144:	a001                	j	144 <nmi_handler>
 146:	0001                	nop

00000148 <default_irq_handler>:
#else

.weak default_irq_handler
.align 2
default_irq_handler:
1:    j 1b
 148:	a001                	j	148 <default_irq_handler>
	...

0000014c <irq_handler_trap>:
#if defined(__ICCRISCV__) && (IRQ_HANDLER_TRAP_AS_ISR == 1)
extern int __vector_table[];
HPM_ATTR_MACHINE_INTERRUPT
#endif
void irq_handler_trap(void)
{
 14c:	7175                	add	sp,sp,-144
 14e:	c706                	sw	ra,140(sp)
 150:	c516                	sw	t0,136(sp)
 152:	c31a                	sw	t1,132(sp)
 154:	c11e                	sw	t2,128(sp)
 156:	deaa                	sw	a0,124(sp)
 158:	dcae                	sw	a1,120(sp)
 15a:	dab2                	sw	a2,116(sp)
 15c:	d8b6                	sw	a3,112(sp)
 15e:	d6ba                	sw	a4,108(sp)
 160:	d4be                	sw	a5,104(sp)
 162:	d2c2                	sw	a6,100(sp)
 164:	d0c6                	sw	a7,96(sp)
 166:	cef2                	sw	t3,92(sp)
 168:	ccf6                	sw	t4,88(sp)
 16a:	cafa                	sw	t5,84(sp)
 16c:	c8fe                	sw	t6,80(sp)
    long mcause = read_csr(CSR_MCAUSE);
 16e:	342027f3          	csrr	a5,mcause
 172:	c4be                	sw	a5,72(sp)
 174:	47a6                	lw	a5,72(sp)
 176:	c2be                	sw	a5,68(sp)
    long mepc = read_csr(CSR_MEPC);
 178:	341027f3          	csrr	a5,mepc
 17c:	c0be                	sw	a5,64(sp)
 17e:	4786                	lw	a5,64(sp)
 180:	c6be                	sw	a5,76(sp)
    long mstatus = read_csr(CSR_MSTATUS);
 182:	300027f3          	csrr	a5,mstatus
 186:	de3e                	sw	a5,60(sp)
 188:	57f2                	lw	a5,60(sp)
 18a:	dc3e                	sw	a5,56(sp)
    int ucode = read_csr(CSR_UCODE);
#endif
#ifdef __riscv_flen
    int fcsr = read_fcsr();
#endif
    int mcctlbeginaddr = read_csr(CSR_MCCTLBEGINADDR);
 18c:	7cb027f3          	csrr	a5,0x7cb
 190:	da3e                	sw	a5,52(sp)
 192:	57d2                	lw	a5,52(sp)
 194:	d83e                	sw	a5,48(sp)
    int mcctldata = read_csr(CSR_MCCTLDATA);
 196:	7cd027f3          	csrr	a5,0x7cd
 19a:	d63e                	sw	a5,44(sp)
 19c:	57b2                	lw	a5,44(sp)
 19e:	d43e                	sw	a5,40(sp)
#else
    __asm volatile("" : : : "a7", "a0", "a1", "a2", "a3");
#endif

    /* Do your trap handling */
    if ((mcause & CSR_MCAUSE_INTERRUPT_MASK) && ((mcause & CSR_MCAUSE_EXCEPTION_CODE_MASK) == IRQ_M_TIMER)) {
 1a0:	4796                	lw	a5,68(sp)
 1a2:	0007de63          	bgez	a5,1be <irq_handler_trap+0x72>
 1a6:	4716                	lw	a4,68(sp)
 1a8:	6785                	lui	a5,0x1
 1aa:	17fd                	add	a5,a5,-1 # fff <e2p_info_table_sort+0x23>
 1ac:	8f7d                	and	a4,a4,a5
 1ae:	479d                	li	a5,7
 1b0:	00f71763          	bne	a4,a5,1be <irq_handler_trap+0x72>
        /* Machine timer interrupt */
        mchtmr_isr();
 1b4:	80006097          	auipc	ra,0x80006
 1b8:	218080e7          	jalr	536(ra) # 800063cc <mchtmr_isr>
 1bc:	a06d                	j	266 <irq_handler_trap+0x11a>
            __plic_complete_irq(HPM_PLIC_BASE, HPM_PLIC_TARGET_M_MODE, irq_index);
        }
    }
#endif

    else if ((mcause & CSR_MCAUSE_INTERRUPT_MASK) && ((mcause & CSR_MCAUSE_EXCEPTION_CODE_MASK) == IRQ_M_SOFT)) {
 1be:	4796                	lw	a5,68(sp)
 1c0:	0607d463          	bgez	a5,228 <irq_handler_trap+0xdc>
 1c4:	4716                	lw	a4,68(sp)
 1c6:	6785                	lui	a5,0x1
 1c8:	17fd                	add	a5,a5,-1 # fff <e2p_info_table_sort+0x23>
 1ca:	8f7d                	and	a4,a4,a5
 1cc:	478d                	li	a5,3
 1ce:	04f71d63          	bne	a4,a5,228 <irq_handler_trap+0xdc>
 1d2:	e64007b7          	lui	a5,0xe6400
 1d6:	ca3e                	sw	a5,20(sp)
 1d8:	c802                	sw	zero,16(sp)
 */
ATTR_ALWAYS_INLINE static inline uint32_t __plic_claim_irq(uint32_t base, uint32_t target)
{
    volatile uint32_t *claim_addr = (volatile uint32_t *)(base +
            HPM_PLIC_CLAIM_OFFSET +
            (target << HPM_PLIC_CLAIM_SHIFT_PER_TARGET));
 1da:	47c2                	lw	a5,16(sp)
 1dc:	00c79713          	sll	a4,a5,0xc
            HPM_PLIC_CLAIM_OFFSET +
 1e0:	47d2                	lw	a5,20(sp)
 1e2:	973e                	add	a4,a4,a5
 1e4:	002007b7          	lui	a5,0x200
 1e8:	0791                	add	a5,a5,4 # 200004 <__fast_ram_bss_end__+0x4>
 1ea:	97ba                	add	a5,a5,a4
    volatile uint32_t *claim_addr = (volatile uint32_t *)(base +
 1ec:	c63e                	sw	a5,12(sp)
    return *claim_addr;
 1ee:	47b2                	lw	a5,12(sp)
 1f0:	439c                	lw	a5,0(a5)
 *
 */
ATTR_ALWAYS_INLINE static inline void intc_m_claim_swi(void)
{
    __plic_claim_irq(HPM_PLICSW_BASE, 0);
}
 1f2:	0001                	nop
        /* Machine SWI interrupt */
        intc_m_claim_swi();
        swi_isr();
 1f4:	80006097          	auipc	ra,0x80006
 1f8:	1dc080e7          	jalr	476(ra) # 800063d0 <swi_isr>
 1fc:	e64007b7          	lui	a5,0xe6400
 200:	d23e                	sw	a5,36(sp)
 202:	d002                	sw	zero,32(sp)
 204:	4785                	li	a5,1
 206:	ce3e                	sw	a5,28(sp)
                                                          uint32_t target,
                                                          uint32_t irq)
{
    volatile uint32_t *claim_addr = (volatile uint32_t *)(base +
            HPM_PLIC_CLAIM_OFFSET +
            (target << HPM_PLIC_CLAIM_SHIFT_PER_TARGET));
 208:	5782                	lw	a5,32(sp)
 20a:	00c79713          	sll	a4,a5,0xc
            HPM_PLIC_CLAIM_OFFSET +
 20e:	5792                	lw	a5,36(sp)
 210:	973e                	add	a4,a4,a5
 212:	002007b7          	lui	a5,0x200
 216:	0791                	add	a5,a5,4 # 200004 <__fast_ram_bss_end__+0x4>
 218:	97ba                	add	a5,a5,a4
    volatile uint32_t *claim_addr = (volatile uint32_t *)(base +
 21a:	cc3e                	sw	a5,24(sp)
    *claim_addr = irq;
 21c:	47e2                	lw	a5,24(sp)
 21e:	4772                	lw	a4,28(sp)
 220:	c398                	sw	a4,0(a5)
}
 222:	0001                	nop
 *
 */
ATTR_ALWAYS_INLINE static inline void intc_m_complete_swi(void)
{
    __plic_complete_irq(HPM_PLICSW_BASE, HPM_PLIC_TARGET_M_MODE, PLICSWI);
}
 224:	0001                	nop
        intc_m_complete_swi();
 226:	a081                	j	266 <irq_handler_trap+0x11a>
    } else if (!(mcause & CSR_MCAUSE_INTERRUPT_MASK) && ((mcause & CSR_MCAUSE_EXCEPTION_CODE_MASK) == MCAUSE_ECALL_FROM_MACHINE_MODE)) {
 228:	4796                	lw	a5,68(sp)
 22a:	0207c763          	bltz	a5,258 <irq_handler_trap+0x10c>
 22e:	4716                	lw	a4,68(sp)
 230:	6785                	lui	a5,0x1
 232:	17fd                	add	a5,a5,-1 # fff <e2p_info_table_sort+0x23>
 234:	8f7d                	and	a4,a4,a5
 236:	47ad                	li	a5,11
 238:	02f71063          	bne	a4,a5,258 <irq_handler_trap+0x10c>
        /* Machine Syscal call */
        __asm volatile(
 23c:	800067b7          	lui	a5,0x80006
 240:	3d478793          	add	a5,a5,980 # 800063d4 <syscall_handler>
 244:	8736                	mv	a4,a3
 246:	86b2                	mv	a3,a2
 248:	862e                	mv	a2,a1
 24a:	85aa                	mv	a1,a0
 24c:	8546                	mv	a0,a7
 24e:	9782                	jalr	a5
        "mv a0, a7\n"
        #endif
        "jalr %0\n"
        : : "r"(syscall_handler) : "a4"
        );
        mepc += 4;
 250:	47b6                	lw	a5,76(sp)
 252:	0791                	add	a5,a5,4
 254:	c6be                	sw	a5,76(sp)
 256:	a801                	j	266 <irq_handler_trap+0x11a>
    } else {
        mepc = exception_handler(mcause, mepc);
 258:	45b6                	lw	a1,76(sp)
 25a:	4516                	lw	a0,68(sp)
 25c:	80006097          	auipc	ra,0x80006
 260:	18a080e7          	jalr	394(ra) # 800063e6 <exception_handler>
 264:	c6aa                	sw	a0,76(sp)
    }

    /* Restore CSR */
    write_csr(CSR_MSTATUS, mstatus);
 266:	57e2                	lw	a5,56(sp)
 268:	30079073          	csrw	mstatus,a5
    write_csr(CSR_MEPC, mepc);
 26c:	47b6                	lw	a5,76(sp)
 26e:	34179073          	csrw	mepc,a5
    write_csr(CSR_UCODE, ucode);
#endif
#ifdef __riscv_flen
    write_fcsr(fcsr);
#endif
    write_csr(CSR_MCCTLDATA, mcctldata);
 272:	57a2                	lw	a5,40(sp)
 274:	7cd79073          	csrw	0x7cd,a5
    write_csr(CSR_MCCTLBEGINADDR, mcctlbeginaddr);
 278:	57c2                	lw	a5,48(sp)
 27a:	7cb79073          	csrw	0x7cb,a5
}
 27e:	0001                	nop
 280:	40ba                	lw	ra,140(sp)
 282:	42aa                	lw	t0,136(sp)
 284:	431a                	lw	t1,132(sp)
 286:	438a                	lw	t2,128(sp)
 288:	5576                	lw	a0,124(sp)
 28a:	55e6                	lw	a1,120(sp)
 28c:	5656                	lw	a2,116(sp)
 28e:	56c6                	lw	a3,112(sp)
 290:	5736                	lw	a4,108(sp)
 292:	57a6                	lw	a5,104(sp)
 294:	5816                	lw	a6,100(sp)
 296:	5886                	lw	a7,96(sp)
 298:	4e76                	lw	t3,92(sp)
 29a:	4ee6                	lw	t4,88(sp)
 29c:	4f56                	lw	t5,84(sp)
 29e:	4fc6                	lw	t6,80(sp)
 2a0:	6149                	add	sp,sp,144
 2a2:	30200073          	mret
	...

000002a8 <board_timer_isr>:

#if !defined(NO_BOARD_TIMER_SUPPORT) || !NO_BOARD_TIMER_SUPPORT
static board_timer_cb timer_cb;
SDK_DECLARE_EXT_ISR_M(BOARD_CALLBACK_TIMER_IRQ, board_timer_isr);
void board_timer_isr(void)
{
 2a8:	1141                	add	sp,sp,-16
 2aa:	c606                	sw	ra,12(sp)
    if (gptmr_check_status(BOARD_CALLBACK_TIMER, GPTMR_CH_RLD_STAT_MASK(BOARD_CALLBACK_TIMER_CH))) {
 2ac:	45c1                	li	a1,16
 2ae:	f000c537          	lui	a0,0xf000c
 2b2:	80006097          	auipc	ra,0x80006
 2b6:	51c080e7          	jalr	1308(ra) # 800067ce <gptmr_check_status>
 2ba:	87aa                	mv	a5,a0
 2bc:	cf89                	beqz	a5,2d6 <board_timer_isr+0x2e>
        gptmr_clear_status(BOARD_CALLBACK_TIMER, GPTMR_CH_RLD_STAT_MASK(BOARD_CALLBACK_TIMER_CH));
 2be:	45c1                	li	a1,16
 2c0:	f000c537          	lui	a0,0xf000c
 2c4:	80006097          	auipc	ra,0x80006
 2c8:	52e080e7          	jalr	1326(ra) # 800067f2 <gptmr_clear_status>
        timer_cb();
 2cc:	012097b7          	lui	a5,0x1209
 2d0:	6287a783          	lw	a5,1576(a5) # 1209628 <timer_cb>
 2d4:	9782                	jalr	a5
    }
}
 2d6:	0001                	nop
 2d8:	40b2                	lw	ra,12(sp)
 2da:	0141                	add	sp,sp,16
 2dc:	8082                	ret
 2de:	0001                	nop

000002e0 <default_isr_14>:
SDK_DECLARE_EXT_ISR_M(BOARD_CALLBACK_TIMER_IRQ, board_timer_isr);
 2e0:	711d                	add	sp,sp,-96
 2e2:	c006                	sw	ra,0(sp)
 2e4:	c216                	sw	t0,4(sp)
 2e6:	c41a                	sw	t1,8(sp)
 2e8:	c61e                	sw	t2,12(sp)
 2ea:	c826                	sw	s1,16(sp)
 2ec:	ca2a                	sw	a0,20(sp)
 2ee:	cc2e                	sw	a1,24(sp)
 2f0:	ce32                	sw	a2,28(sp)
 2f2:	d036                	sw	a3,32(sp)
 2f4:	d23a                	sw	a4,36(sp)
 2f6:	d43e                	sw	a5,40(sp)
 2f8:	d642                	sw	a6,44(sp)
 2fa:	d846                	sw	a7,48(sp)
 2fc:	da4a                	sw	s2,52(sp)
 2fe:	dc4e                	sw	s3,56(sp)
 300:	de52                	sw	s4,60(sp)
 302:	c0d6                	sw	s5,64(sp)
 304:	c2da                	sw	s6,68(sp)
 306:	c4f2                	sw	t3,72(sp)
 308:	c6f6                	sw	t4,76(sp)
 30a:	c8fa                	sw	t5,80(sp)
 30c:	cafe                	sw	t6,84(sp)
 30e:	34102973          	csrr	s2,mepc
 312:	300029f3          	csrr	s3,mstatus
 316:	7cb02af3          	csrr	s5,0x7cb
 31a:	7cd02b73          	csrr	s6,0x7cd
 31e:	30046073          	csrs	mstatus,8
 322:	00000317          	auipc	t1,0x0
 326:	f8630313          	add	t1,t1,-122 # 2a8 <board_timer_isr>
 32a:	9302                	jalr	t1
 32c:	30047073          	csrc	mstatus,8
 330:	e4200737          	lui	a4,0xe4200
 334:	46b9                	li	a3,14
 336:	c354                	sw	a3,4(a4)
 338:	30099073          	csrw	mstatus,s3
 33c:	34191073          	csrw	mepc,s2
 340:	7cdb1073          	csrw	0x7cd,s6
 344:	7cba9073          	csrw	0x7cb,s5
 348:	4082                	lw	ra,0(sp)
 34a:	4292                	lw	t0,4(sp)
 34c:	4322                	lw	t1,8(sp)
 34e:	43b2                	lw	t2,12(sp)
 350:	44c2                	lw	s1,16(sp)
 352:	4552                	lw	a0,20(sp)
 354:	45e2                	lw	a1,24(sp)
 356:	4672                	lw	a2,28(sp)
 358:	5682                	lw	a3,32(sp)
 35a:	5712                	lw	a4,36(sp)
 35c:	57a2                	lw	a5,40(sp)
 35e:	5832                	lw	a6,44(sp)
 360:	58c2                	lw	a7,48(sp)
 362:	5952                	lw	s2,52(sp)
 364:	59e2                	lw	s3,56(sp)
 366:	5a72                	lw	s4,60(sp)
 368:	4a86                	lw	s5,64(sp)
 36a:	4b16                	lw	s6,68(sp)
 36c:	4e26                	lw	t3,72(sp)
 36e:	4eb6                	lw	t4,76(sp)
 370:	4f46                	lw	t5,80(sp)
 372:	4fd6                	lw	t6,84(sp)
 374:	6125                	add	sp,sp,96
 376:	0cc0000f          	fence	io,io
 37a:	30200073          	mret
	...

00000380 <ecat_time_ms_isr>:
}

/* gptmr irq handler */
SDK_DECLARE_EXT_ISR_M(ECAT_TIMER_GPTRM_IRQ, ecat_time_ms_isr)
void ecat_time_ms_isr(void)
{
 380:	1141                	add	sp,sp,-16
 382:	c606                	sw	ra,12(sp)
    if (gptmr_check_status(ECAT_TIMER_GPTMR, GPTMR_CH_RLD_STAT_MASK(ECAT_TIMER_GPTMR_CH))) {
 384:	4585                	li	a1,1
 386:	f0000537          	lui	a0,0xf0000
 38a:	80011097          	auipc	ra,0x80011
 38e:	4aa080e7          	jalr	1194(ra) # 80011834 <gptmr_check_status>
 392:	87aa                	mv	a5,a0
 394:	c795                	beqz	a5,3c0 <ecat_time_ms_isr+0x40>
        gptmr_clear_status(ECAT_TIMER_GPTMR, GPTMR_CH_RLD_STAT_MASK(ECAT_TIMER_GPTMR_CH));
 396:	4585                	li	a1,1
 398:	f0000537          	lui	a0,0xf0000
 39c:	80011097          	auipc	ra,0x80011
 3a0:	4bc080e7          	jalr	1212(ra) # 80011858 <gptmr_clear_status>
        ecat_time_ms += ECAT_TIMER_INC_P_MS;
 3a4:	012097b7          	lui	a5,0x1209
 3a8:	7587a783          	lw	a5,1880(a5) # 1209758 <ecat_time_ms>
 3ac:	00178713          	add	a4,a5,1
 3b0:	012097b7          	lui	a5,0x1209
 3b4:	74e7ac23          	sw	a4,1880(a5) # 1209758 <ecat_time_ms>
#if defined(ECAT_TIMER_INT) && ECAT_TIMER_INT
        ECAT_CheckTimer();
 3b8:	80009097          	auipc	ra,0x80009
 3bc:	610080e7          	jalr	1552(ra) # 800099c8 <ECAT_CheckTimer>
#if defined(EOE_SUPPORTED) && EOE_SUPPORTED
        /* Lwip and SSC share one tick source */
        sys_timer_callback(); /* lwip sys tick */
#endif
    }
}
 3c0:	0001                	nop
 3c2:	40b2                	lw	ra,12(sp)
 3c4:	0141                	add	sp,sp,16
 3c6:	8082                	ret

000003c8 <default_isr_11>:
SDK_DECLARE_EXT_ISR_M(ECAT_TIMER_GPTRM_IRQ, ecat_time_ms_isr)
 3c8:	711d                	add	sp,sp,-96
 3ca:	c006                	sw	ra,0(sp)
 3cc:	c216                	sw	t0,4(sp)
 3ce:	c41a                	sw	t1,8(sp)
 3d0:	c61e                	sw	t2,12(sp)
 3d2:	c826                	sw	s1,16(sp)
 3d4:	ca2a                	sw	a0,20(sp)
 3d6:	cc2e                	sw	a1,24(sp)
 3d8:	ce32                	sw	a2,28(sp)
 3da:	d036                	sw	a3,32(sp)
 3dc:	d23a                	sw	a4,36(sp)
 3de:	d43e                	sw	a5,40(sp)
 3e0:	d642                	sw	a6,44(sp)
 3e2:	d846                	sw	a7,48(sp)
 3e4:	da4a                	sw	s2,52(sp)
 3e6:	dc4e                	sw	s3,56(sp)
 3e8:	de52                	sw	s4,60(sp)
 3ea:	c0d6                	sw	s5,64(sp)
 3ec:	c2da                	sw	s6,68(sp)
 3ee:	c4f2                	sw	t3,72(sp)
 3f0:	c6f6                	sw	t4,76(sp)
 3f2:	c8fa                	sw	t5,80(sp)
 3f4:	cafe                	sw	t6,84(sp)
 3f6:	34102973          	csrr	s2,mepc
 3fa:	300029f3          	csrr	s3,mstatus
 3fe:	7cb02af3          	csrr	s5,0x7cb
 402:	7cd02b73          	csrr	s6,0x7cd
 406:	30046073          	csrs	mstatus,8
 40a:	00000317          	auipc	t1,0x0
 40e:	f7630313          	add	t1,t1,-138 # 380 <ecat_time_ms_isr>
 412:	9302                	jalr	t1
 414:	30047073          	csrc	mstatus,8
 418:	e4200737          	lui	a4,0xe4200
 41c:	46ad                	li	a3,11
 41e:	c354                	sw	a3,4(a4)
 420:	30099073          	csrw	mstatus,s3
 424:	34191073          	csrw	mepc,s2
 428:	7cdb1073          	csrw	0x7cd,s6
 42c:	7cba9073          	csrw	0x7cb,s5
 430:	4082                	lw	ra,0(sp)
 432:	4292                	lw	t0,4(sp)
 434:	4322                	lw	t1,8(sp)
 436:	43b2                	lw	t2,12(sp)
 438:	44c2                	lw	s1,16(sp)
 43a:	4552                	lw	a0,20(sp)
 43c:	45e2                	lw	a1,24(sp)
 43e:	4672                	lw	a2,28(sp)
 440:	5682                	lw	a3,32(sp)
 442:	5712                	lw	a4,36(sp)
 444:	57a2                	lw	a5,40(sp)
 446:	5832                	lw	a6,44(sp)
 448:	58c2                	lw	a7,48(sp)
 44a:	5952                	lw	s2,52(sp)
 44c:	59e2                	lw	s3,56(sp)
 44e:	5a72                	lw	s4,60(sp)
 450:	4a86                	lw	s5,64(sp)
 452:	4b16                	lw	s6,68(sp)
 454:	4e26                	lw	t3,72(sp)
 456:	4eb6                	lw	t4,76(sp)
 458:	4f46                	lw	t5,80(sp)
 45a:	4fd6                	lw	t6,84(sp)
 45c:	6125                	add	sp,sp,96
 45e:	0cc0000f          	fence	io,io
 462:	30200073          	mret

00000466 <ecat_pdi_isr>:
#endif /* ECAT_SSC_TIMER_USE_RTOS_TICK */

/* ECAT PDI IRQ handler */
SDK_DECLARE_EXT_ISR_M(IRQn_ESC, ecat_pdi_isr)
void ecat_pdi_isr(void)
{
 466:	1141                	add	sp,sp,-16
 468:	c606                	sw	ra,12(sp)
    /* call handler in SSC */
    PDI_Isr();
 46a:	8000a097          	auipc	ra,0x8000a
 46e:	8b0080e7          	jalr	-1872(ra) # 80009d1a <PDI_Isr>

    /* callback */
}
 472:	0001                	nop
 474:	40b2                	lw	ra,12(sp)
 476:	0141                	add	sp,sp,16
 478:	8082                	ret
 47a:	0001                	nop

0000047c <default_isr_61>:
SDK_DECLARE_EXT_ISR_M(IRQn_ESC, ecat_pdi_isr)
 47c:	711d                	add	sp,sp,-96
 47e:	c006                	sw	ra,0(sp)
 480:	c216                	sw	t0,4(sp)
 482:	c41a                	sw	t1,8(sp)
 484:	c61e                	sw	t2,12(sp)
 486:	c826                	sw	s1,16(sp)
 488:	ca2a                	sw	a0,20(sp)
 48a:	cc2e                	sw	a1,24(sp)
 48c:	ce32                	sw	a2,28(sp)
 48e:	d036                	sw	a3,32(sp)
 490:	d23a                	sw	a4,36(sp)
 492:	d43e                	sw	a5,40(sp)
 494:	d642                	sw	a6,44(sp)
 496:	d846                	sw	a7,48(sp)
 498:	da4a                	sw	s2,52(sp)
 49a:	dc4e                	sw	s3,56(sp)
 49c:	de52                	sw	s4,60(sp)
 49e:	c0d6                	sw	s5,64(sp)
 4a0:	c2da                	sw	s6,68(sp)
 4a2:	c4f2                	sw	t3,72(sp)
 4a4:	c6f6                	sw	t4,76(sp)
 4a6:	c8fa                	sw	t5,80(sp)
 4a8:	cafe                	sw	t6,84(sp)
 4aa:	34102973          	csrr	s2,mepc
 4ae:	300029f3          	csrr	s3,mstatus
 4b2:	7cb02af3          	csrr	s5,0x7cb
 4b6:	7cd02b73          	csrr	s6,0x7cd
 4ba:	30046073          	csrs	mstatus,8
 4be:	00000317          	auipc	t1,0x0
 4c2:	fa830313          	add	t1,t1,-88 # 466 <ecat_pdi_isr>
 4c6:	9302                	jalr	t1
 4c8:	30047073          	csrc	mstatus,8
 4cc:	e4200737          	lui	a4,0xe4200
 4d0:	03d00693          	li	a3,61
 4d4:	c354                	sw	a3,4(a4)
 4d6:	30099073          	csrw	mstatus,s3
 4da:	34191073          	csrw	mepc,s2
 4de:	7cdb1073          	csrw	0x7cd,s6
 4e2:	7cba9073          	csrw	0x7cb,s5
 4e6:	4082                	lw	ra,0(sp)
 4e8:	4292                	lw	t0,4(sp)
 4ea:	4322                	lw	t1,8(sp)
 4ec:	43b2                	lw	t2,12(sp)
 4ee:	44c2                	lw	s1,16(sp)
 4f0:	4552                	lw	a0,20(sp)
 4f2:	45e2                	lw	a1,24(sp)
 4f4:	4672                	lw	a2,28(sp)
 4f6:	5682                	lw	a3,32(sp)
 4f8:	5712                	lw	a4,36(sp)
 4fa:	57a2                	lw	a5,40(sp)
 4fc:	5832                	lw	a6,44(sp)
 4fe:	58c2                	lw	a7,48(sp)
 500:	5952                	lw	s2,52(sp)
 502:	59e2                	lw	s3,56(sp)
 504:	5a72                	lw	s4,60(sp)
 506:	4a86                	lw	s5,64(sp)
 508:	4b16                	lw	s6,68(sp)
 50a:	4e26                	lw	t3,72(sp)
 50c:	4eb6                	lw	t4,76(sp)
 50e:	4f46                	lw	t5,80(sp)
 510:	4fd6                	lw	t6,84(sp)
 512:	6125                	add	sp,sp,96
 514:	0cc0000f          	fence	io,io
 518:	30200073          	mret

0000051c <ecat_sync0_isr>:

/* ECAT SYNC0 IRQ handler */
SDK_DECLARE_EXT_ISR_M(IRQn_ESC_SYNC0, ecat_sync0_isr)
void ecat_sync0_isr(void)
{
 51c:	1101                	add	sp,sp,-32
 51e:	ce06                	sw	ra,28(sp)
#if defined(HPM_IP_FEATURE_ESC_BYTE_READ) && HPM_IP_FEATURE_ESC_BYTE_READ
    volatile UINT8 SyncState = 0;
 520:	000107a3          	sb	zero,15(sp)
    HW_EscReadByte(SyncState, 0x098E); /* Readbyte, acknowledge Sync0 */
 524:	012097b7          	lui	a5,0x1209
 528:	7547a703          	lw	a4,1876(a5) # 1209754 <pEsc>
 52c:	6785                	lui	a5,0x1
 52e:	98e78793          	add	a5,a5,-1650 # 98e <default_isr_19+0x166>
 532:	97ba                	add	a5,a5,a4
 534:	0007c783          	lbu	a5,0(a5)
 538:	0ff7f793          	zext.b	a5,a5
 53c:	00f107a3          	sb	a5,15(sp)
#else
    volatile UINT32 SyncState = 0;
    HW_EscReadDWord(SyncState, ESC_DC_SYNC_STATUS); /* ReadDWord, acknowledge Sync0 and Sync1 */
#endif
    (void) SyncState;
 540:	00f14783          	lbu	a5,15(sp)

    /* call handler in SSC */
    Sync0_Isr();
 544:	8000a097          	auipc	ra,0x8000a
 548:	af2080e7          	jalr	-1294(ra) # 8000a036 <Sync0_Isr>

    /* callback */
}
 54c:	0001                	nop
 54e:	40f2                	lw	ra,28(sp)
 550:	6105                	add	sp,sp,32
 552:	8082                	ret

00000554 <default_isr_62>:
SDK_DECLARE_EXT_ISR_M(IRQn_ESC_SYNC0, ecat_sync0_isr)
 554:	711d                	add	sp,sp,-96
 556:	c006                	sw	ra,0(sp)
 558:	c216                	sw	t0,4(sp)
 55a:	c41a                	sw	t1,8(sp)
 55c:	c61e                	sw	t2,12(sp)
 55e:	c826                	sw	s1,16(sp)
 560:	ca2a                	sw	a0,20(sp)
 562:	cc2e                	sw	a1,24(sp)
 564:	ce32                	sw	a2,28(sp)
 566:	d036                	sw	a3,32(sp)
 568:	d23a                	sw	a4,36(sp)
 56a:	d43e                	sw	a5,40(sp)
 56c:	d642                	sw	a6,44(sp)
 56e:	d846                	sw	a7,48(sp)
 570:	da4a                	sw	s2,52(sp)
 572:	dc4e                	sw	s3,56(sp)
 574:	de52                	sw	s4,60(sp)
 576:	c0d6                	sw	s5,64(sp)
 578:	c2da                	sw	s6,68(sp)
 57a:	c4f2                	sw	t3,72(sp)
 57c:	c6f6                	sw	t4,76(sp)
 57e:	c8fa                	sw	t5,80(sp)
 580:	cafe                	sw	t6,84(sp)
 582:	34102973          	csrr	s2,mepc
 586:	300029f3          	csrr	s3,mstatus
 58a:	7cb02af3          	csrr	s5,0x7cb
 58e:	7cd02b73          	csrr	s6,0x7cd
 592:	30046073          	csrs	mstatus,8
 596:	00000317          	auipc	t1,0x0
 59a:	f8630313          	add	t1,t1,-122 # 51c <ecat_sync0_isr>
 59e:	9302                	jalr	t1
 5a0:	30047073          	csrc	mstatus,8
 5a4:	e4200737          	lui	a4,0xe4200
 5a8:	03e00693          	li	a3,62
 5ac:	c354                	sw	a3,4(a4)
 5ae:	30099073          	csrw	mstatus,s3
 5b2:	34191073          	csrw	mepc,s2
 5b6:	7cdb1073          	csrw	0x7cd,s6
 5ba:	7cba9073          	csrw	0x7cb,s5
 5be:	4082                	lw	ra,0(sp)
 5c0:	4292                	lw	t0,4(sp)
 5c2:	4322                	lw	t1,8(sp)
 5c4:	43b2                	lw	t2,12(sp)
 5c6:	44c2                	lw	s1,16(sp)
 5c8:	4552                	lw	a0,20(sp)
 5ca:	45e2                	lw	a1,24(sp)
 5cc:	4672                	lw	a2,28(sp)
 5ce:	5682                	lw	a3,32(sp)
 5d0:	5712                	lw	a4,36(sp)
 5d2:	57a2                	lw	a5,40(sp)
 5d4:	5832                	lw	a6,44(sp)
 5d6:	58c2                	lw	a7,48(sp)
 5d8:	5952                	lw	s2,52(sp)
 5da:	59e2                	lw	s3,56(sp)
 5dc:	5a72                	lw	s4,60(sp)
 5de:	4a86                	lw	s5,64(sp)
 5e0:	4b16                	lw	s6,68(sp)
 5e2:	4e26                	lw	t3,72(sp)
 5e4:	4eb6                	lw	t4,76(sp)
 5e6:	4f46                	lw	t5,80(sp)
 5e8:	4fd6                	lw	t6,84(sp)
 5ea:	6125                	add	sp,sp,96
 5ec:	0cc0000f          	fence	io,io
 5f0:	30200073          	mret

000005f4 <ecat_sync1_isr>:

/* ECAT SYNC0 IRQ handler */
SDK_DECLARE_EXT_ISR_M(IRQn_ESC_SYNC1, ecat_sync1_isr)
void ecat_sync1_isr(void)
{
 5f4:	1101                	add	sp,sp,-32
 5f6:	ce06                	sw	ra,28(sp)
#if defined(HPM_IP_FEATURE_ESC_BYTE_READ) && HPM_IP_FEATURE_ESC_BYTE_READ
    volatile UINT8 SyncState = 0;
 5f8:	000107a3          	sb	zero,15(sp)
    HW_EscReadByte(SyncState, 0x098F); /* Readbyte, acknowledge Sync0 */
 5fc:	012097b7          	lui	a5,0x1209
 600:	7547a703          	lw	a4,1876(a5) # 1209754 <pEsc>
 604:	6785                	lui	a5,0x1
 606:	98f78793          	add	a5,a5,-1649 # 98f <default_isr_19+0x167>
 60a:	97ba                	add	a5,a5,a4
 60c:	0007c783          	lbu	a5,0(a5)
 610:	0ff7f793          	zext.b	a5,a5
 614:	00f107a3          	sb	a5,15(sp)
#else
    volatile UINT32 SyncState = 0;
    HW_EscReadDWord(SyncState, ESC_DC_SYNC_STATUS); /* ReadDWord, acknowledge Sync0 and Sync1 */
#endif
    (void) SyncState;
 618:	00f14783          	lbu	a5,15(sp)

    /* call handler in SSC */
    Sync1_Isr();
 61c:	8000a097          	auipc	ra,0x8000a
 620:	cb8080e7          	jalr	-840(ra) # 8000a2d4 <Sync1_Isr>

    /* callback */
}
 624:	0001                	nop
 626:	40f2                	lw	ra,28(sp)
 628:	6105                	add	sp,sp,32
 62a:	8082                	ret

0000062c <default_isr_63>:
SDK_DECLARE_EXT_ISR_M(IRQn_ESC_SYNC1, ecat_sync1_isr)
 62c:	711d                	add	sp,sp,-96
 62e:	c006                	sw	ra,0(sp)
 630:	c216                	sw	t0,4(sp)
 632:	c41a                	sw	t1,8(sp)
 634:	c61e                	sw	t2,12(sp)
 636:	c826                	sw	s1,16(sp)
 638:	ca2a                	sw	a0,20(sp)
 63a:	cc2e                	sw	a1,24(sp)
 63c:	ce32                	sw	a2,28(sp)
 63e:	d036                	sw	a3,32(sp)
 640:	d23a                	sw	a4,36(sp)
 642:	d43e                	sw	a5,40(sp)
 644:	d642                	sw	a6,44(sp)
 646:	d846                	sw	a7,48(sp)
 648:	da4a                	sw	s2,52(sp)
 64a:	dc4e                	sw	s3,56(sp)
 64c:	de52                	sw	s4,60(sp)
 64e:	c0d6                	sw	s5,64(sp)
 650:	c2da                	sw	s6,68(sp)
 652:	c4f2                	sw	t3,72(sp)
 654:	c6f6                	sw	t4,76(sp)
 656:	c8fa                	sw	t5,80(sp)
 658:	cafe                	sw	t6,84(sp)
 65a:	34102973          	csrr	s2,mepc
 65e:	300029f3          	csrr	s3,mstatus
 662:	7cb02af3          	csrr	s5,0x7cb
 666:	7cd02b73          	csrr	s6,0x7cd
 66a:	30046073          	csrs	mstatus,8
 66e:	00000317          	auipc	t1,0x0
 672:	f8630313          	add	t1,t1,-122 # 5f4 <ecat_sync1_isr>
 676:	9302                	jalr	t1
 678:	30047073          	csrc	mstatus,8
 67c:	e4200737          	lui	a4,0xe4200
 680:	03f00693          	li	a3,63
 684:	c354                	sw	a3,4(a4)
 686:	30099073          	csrw	mstatus,s3
 68a:	34191073          	csrw	mepc,s2
 68e:	7cdb1073          	csrw	0x7cd,s6
 692:	7cba9073          	csrw	0x7cb,s5
 696:	4082                	lw	ra,0(sp)
 698:	4292                	lw	t0,4(sp)
 69a:	4322                	lw	t1,8(sp)
 69c:	43b2                	lw	t2,12(sp)
 69e:	44c2                	lw	s1,16(sp)
 6a0:	4552                	lw	a0,20(sp)
 6a2:	45e2                	lw	a1,24(sp)
 6a4:	4672                	lw	a2,28(sp)
 6a6:	5682                	lw	a3,32(sp)
 6a8:	5712                	lw	a4,36(sp)
 6aa:	57a2                	lw	a5,40(sp)
 6ac:	5832                	lw	a6,44(sp)
 6ae:	58c2                	lw	a7,48(sp)
 6b0:	5952                	lw	s2,52(sp)
 6b2:	59e2                	lw	s3,56(sp)
 6b4:	5a72                	lw	s4,60(sp)
 6b6:	4a86                	lw	s5,64(sp)
 6b8:	4b16                	lw	s6,68(sp)
 6ba:	4e26                	lw	t3,72(sp)
 6bc:	4eb6                	lw	t4,76(sp)
 6be:	4f46                	lw	t5,80(sp)
 6c0:	4fd6                	lw	t6,84(sp)
 6c2:	6125                	add	sp,sp,96
 6c4:	0cc0000f          	fence	io,io
 6c8:	30200073          	mret

000006cc <ecat_reset_isr>:

/* ECAT reset handler, please do necessary protection before resetting!!!! */
SDK_DECLARE_EXT_ISR_M(IRQn_ESC_RESET, ecat_reset_isr)
void ecat_reset_isr(void)
{
 6cc:	1141                	add	sp,sp,-16
 6ce:	c606                	sw	ra,12(sp)
    }

    esc_hardware_init(HPM_ESC); /* reconfig ESC peripheral */
#elif defined(ECAT_RESET_ESC_WITH_MCU) && ECAT_RESET_ESC_WITH_MCU
    /* keep phy in reset before reset esc peripheral */
    ecat_phy_keep_reset();
 6d0:	80012097          	auipc	ra,0x80012
 6d4:	cbe080e7          	jalr	-834(ra) # 8001238e <ecat_phy_keep_reset>
    ppor_sw_reset(HPM_PPOR, 2); /* software reset */
 6d8:	4589                	li	a1,2
 6da:	f4100537          	lui	a0,0xf4100
 6de:	80011097          	auipc	ra,0x80011
 6e2:	5ae080e7          	jalr	1454(ra) # 80011c8c <ppor_sw_reset>
    while (1) {
 6e6:	a001                	j	6e6 <ecat_reset_isr+0x1a>

000006e8 <default_isr_64>:
SDK_DECLARE_EXT_ISR_M(IRQn_ESC_RESET, ecat_reset_isr)
 6e8:	711d                	add	sp,sp,-96
 6ea:	c006                	sw	ra,0(sp)
 6ec:	c216                	sw	t0,4(sp)
 6ee:	c41a                	sw	t1,8(sp)
 6f0:	c61e                	sw	t2,12(sp)
 6f2:	c826                	sw	s1,16(sp)
 6f4:	ca2a                	sw	a0,20(sp)
 6f6:	cc2e                	sw	a1,24(sp)
 6f8:	ce32                	sw	a2,28(sp)
 6fa:	d036                	sw	a3,32(sp)
 6fc:	d23a                	sw	a4,36(sp)
 6fe:	d43e                	sw	a5,40(sp)
 700:	d642                	sw	a6,44(sp)
 702:	d846                	sw	a7,48(sp)
 704:	da4a                	sw	s2,52(sp)
 706:	dc4e                	sw	s3,56(sp)
 708:	de52                	sw	s4,60(sp)
 70a:	c0d6                	sw	s5,64(sp)
 70c:	c2da                	sw	s6,68(sp)
 70e:	c4f2                	sw	t3,72(sp)
 710:	c6f6                	sw	t4,76(sp)
 712:	c8fa                	sw	t5,80(sp)
 714:	cafe                	sw	t6,84(sp)
 716:	34102973          	csrr	s2,mepc
 71a:	300029f3          	csrr	s3,mstatus
 71e:	7cb02af3          	csrr	s5,0x7cb
 722:	7cd02b73          	csrr	s6,0x7cd
 726:	30046073          	csrs	mstatus,8
 72a:	00000317          	auipc	t1,0x0
 72e:	fa230313          	add	t1,t1,-94 # 6cc <ecat_reset_isr>
 732:	9302                	jalr	t1
 734:	30047073          	csrc	mstatus,8
 738:	e4200737          	lui	a4,0xe4200
 73c:	04000693          	li	a3,64
 740:	c354                	sw	a3,4(a4)
 742:	30099073          	csrw	mstatus,s3
 746:	34191073          	csrw	mepc,s2
 74a:	7cdb1073          	csrw	0x7cd,s6
 74e:	7cba9073          	csrw	0x7cb,s5
 752:	4082                	lw	ra,0(sp)
 754:	4292                	lw	t0,4(sp)
 756:	4322                	lw	t1,8(sp)
 758:	43b2                	lw	t2,12(sp)
 75a:	44c2                	lw	s1,16(sp)
 75c:	4552                	lw	a0,20(sp)
 75e:	45e2                	lw	a1,24(sp)
 760:	4672                	lw	a2,28(sp)
 762:	5682                	lw	a3,32(sp)
 764:	5712                	lw	a4,36(sp)
 766:	57a2                	lw	a5,40(sp)
 768:	5832                	lw	a6,44(sp)
 76a:	58c2                	lw	a7,48(sp)
 76c:	5952                	lw	s2,52(sp)
 76e:	59e2                	lw	s3,56(sp)
 770:	5a72                	lw	s4,60(sp)
 772:	4a86                	lw	s5,64(sp)
 774:	4b16                	lw	s6,68(sp)
 776:	4e26                	lw	t3,72(sp)
 778:	4eb6                	lw	t4,76(sp)
 77a:	4f46                	lw	t5,80(sp)
 77c:	4fd6                	lw	t6,84(sp)
 77e:	6125                	add	sp,sp,96
 780:	0cc0000f          	fence	io,io
 784:	30200073          	mret

00000788 <isr_uart0>:
    return len;
}

/* UART0 中断服务函数 (从原来的 uart4 改成 0) */
void isr_uart0(void)
{
 788:	1101                	add	sp,sp,-32
 78a:	ce06                	sw	ra,28(sp)
    uint8_t c;
    
    if (uart_check_status(RS485_UART, uart_stat_data_ready) || 
 78c:	4585                	li	a1,1
 78e:	f0040537          	lui	a0,0xf0040
 792:	80016097          	auipc	ra,0x80016
 796:	eb6080e7          	jalr	-330(ra) # 80016648 <uart_check_status>
 79a:	87aa                	mv	a5,a0
 79c:	eba5                	bnez	a5,80c <isr_uart0+0x84>
        (uart_get_irq_id(RS485_UART) == uart_intr_id_rx_timeout)) 
 79e:	f0040537          	lui	a0,0xf0040
 7a2:	80016097          	auipc	ra,0x80016
 7a6:	e8e080e7          	jalr	-370(ra) # 80016630 <uart_get_irq_id>
 7aa:	87aa                	mv	a5,a0
 7ac:	873e                	mv	a4,a5
    if (uart_check_status(RS485_UART, uart_stat_data_ready) || 
 7ae:	47b1                	li	a5,12
 7b0:	06f71763          	bne	a4,a5,81e <isr_uart0+0x96>
    {
        while (uart_check_status(RS485_UART, uart_stat_data_ready)) {
 7b4:	a8a1                	j	80c <isr_uart0+0x84>
            c = uart_read_byte(RS485_UART);
 7b6:	f0040537          	lui	a0,0xf0040
 7ba:	80016097          	auipc	ra,0x80016
 7be:	e4c080e7          	jalr	-436(ra) # 80016606 <uart_read_byte>
 7c2:	87aa                	mv	a5,a0
 7c4:	00f107a3          	sb	a5,15(sp)
            if (sg_rs485_rx_len < RS485_RX_BUF_SIZE) {
 7c8:	012097b7          	lui	a5,0x1209
 7cc:	7807d783          	lhu	a5,1920(a5) # 1209780 <sg_rs485_rx_len>
 7d0:	0807c733          	zext.h	a4,a5
 7d4:	0ff00793          	li	a5,255
 7d8:	02e7ea63          	bltu	a5,a4,80c <isr_uart0+0x84>
                sg_rs485_rx_buf[sg_rs485_rx_len++] = c;
 7dc:	012097b7          	lui	a5,0x1209
 7e0:	7807d783          	lhu	a5,1920(a5) # 1209780 <sg_rs485_rx_len>
 7e4:	0807c7b3          	zext.h	a5,a5
 7e8:	00178713          	add	a4,a5,1
 7ec:	080746b3          	zext.h	a3,a4
 7f0:	01209737          	lui	a4,0x1209
 7f4:	78d71023          	sh	a3,1920(a4) # 1209780 <sg_rs485_rx_len>
 7f8:	873e                	mv	a4,a5
 7fa:	012097b7          	lui	a5,0x1209
 7fe:	52878793          	add	a5,a5,1320 # 1209528 <sg_rs485_rx_buf>
 802:	97ba                	add	a5,a5,a4
 804:	00f14703          	lbu	a4,15(sp)
 808:	00e78023          	sb	a4,0(a5)
        while (uart_check_status(RS485_UART, uart_stat_data_ready)) {
 80c:	4585                	li	a1,1
 80e:	f0040537          	lui	a0,0xf0040
 812:	80016097          	auipc	ra,0x80016
 816:	e36080e7          	jalr	-458(ra) # 80016648 <uart_check_status>
 81a:	87aa                	mv	a5,a0
 81c:	ffc9                	bnez	a5,7b6 <isr_uart0+0x2e>
            }
        }
    }
}
 81e:	0001                	nop
 820:	40f2                	lw	ra,28(sp)
 822:	6105                	add	sp,sp,32
 824:	8082                	ret
 826:	0001                	nop

00000828 <default_isr_19>:
/* 这里的注册宏极其关键，它会自动和上面的 IRQn_UART0 绑定 */
 828:	711d                	add	sp,sp,-96
 82a:	c006                	sw	ra,0(sp)
 82c:	c216                	sw	t0,4(sp)
 82e:	c41a                	sw	t1,8(sp)
 830:	c61e                	sw	t2,12(sp)
 832:	c826                	sw	s1,16(sp)
 834:	ca2a                	sw	a0,20(sp)
 836:	cc2e                	sw	a1,24(sp)
 838:	ce32                	sw	a2,28(sp)
 83a:	d036                	sw	a3,32(sp)
 83c:	d23a                	sw	a4,36(sp)
 83e:	d43e                	sw	a5,40(sp)
 840:	d642                	sw	a6,44(sp)
 842:	d846                	sw	a7,48(sp)
 844:	da4a                	sw	s2,52(sp)
 846:	dc4e                	sw	s3,56(sp)
 848:	de52                	sw	s4,60(sp)
 84a:	c0d6                	sw	s5,64(sp)
 84c:	c2da                	sw	s6,68(sp)
 84e:	c4f2                	sw	t3,72(sp)
 850:	c6f6                	sw	t4,76(sp)
 852:	c8fa                	sw	t5,80(sp)
 854:	cafe                	sw	t6,84(sp)
 856:	34102973          	csrr	s2,mepc
 85a:	300029f3          	csrr	s3,mstatus
 85e:	7cb02af3          	csrr	s5,0x7cb
 862:	7cd02b73          	csrr	s6,0x7cd
 866:	30046073          	csrs	mstatus,8
 86a:	00000317          	auipc	t1,0x0
 86e:	f1e30313          	add	t1,t1,-226 # 788 <isr_uart0>
 872:	9302                	jalr	t1
 874:	30047073          	csrc	mstatus,8
 878:	e4200737          	lui	a4,0xe4200
 87c:	46cd                	li	a3,19
 87e:	c354                	sw	a3,4(a4)
 880:	30099073          	csrw	mstatus,s3
 884:	34191073          	csrw	mepc,s2
 888:	7cdb1073          	csrw	0x7cd,s6
 88c:	7cba9073          	csrw	0x7cb,s5
 890:	4082                	lw	ra,0(sp)
 892:	4292                	lw	t0,4(sp)
 894:	4322                	lw	t1,8(sp)
 896:	43b2                	lw	t2,12(sp)
 898:	44c2                	lw	s1,16(sp)
 89a:	4552                	lw	a0,20(sp)
 89c:	45e2                	lw	a1,24(sp)
 89e:	4672                	lw	a2,28(sp)
 8a0:	5682                	lw	a3,32(sp)
 8a2:	5712                	lw	a4,36(sp)
 8a4:	57a2                	lw	a5,40(sp)
 8a6:	5832                	lw	a6,44(sp)
 8a8:	58c2                	lw	a7,48(sp)
 8aa:	5952                	lw	s2,52(sp)
 8ac:	59e2                	lw	s3,56(sp)
 8ae:	5a72                	lw	s4,60(sp)
 8b0:	4a86                	lw	s5,64(sp)
 8b2:	4b16                	lw	s6,68(sp)
 8b4:	4e26                	lw	t3,72(sp)
 8b6:	4eb6                	lw	t4,76(sp)
 8b8:	4f46                	lw	t5,80(sp)
 8ba:	4fd6                	lw	t6,84(sp)
 8bc:	6125                	add	sp,sp,96
 8be:	0cc0000f          	fence	io,io
 8c2:	30200073          	mret
	...

00000a00 <__vector_s_table>:
 a00:	0b40                	add	s0,sp,404
 a02:	0000                	unimp
 a04:	0140                	add	s0,sp,132
 a06:	0000                	unimp
 a08:	0140                	add	s0,sp,132
 a0a:	0000                	unimp
 a0c:	0140                	add	s0,sp,132
 a0e:	0000                	unimp
 a10:	0140                	add	s0,sp,132
 a12:	0000                	unimp
 a14:	0140                	add	s0,sp,132
 a16:	0000                	unimp
 a18:	0140                	add	s0,sp,132
 a1a:	0000                	unimp
 a1c:	0140                	add	s0,sp,132
 a1e:	0000                	unimp
 a20:	0140                	add	s0,sp,132
 a22:	0000                	unimp
 a24:	0140                	add	s0,sp,132
 a26:	0000                	unimp
 a28:	0140                	add	s0,sp,132
 a2a:	0000                	unimp
 a2c:	0140                	add	s0,sp,132
 a2e:	0000                	unimp
 a30:	0140                	add	s0,sp,132
 a32:	0000                	unimp
 a34:	0140                	add	s0,sp,132
 a36:	0000                	unimp
 a38:	0140                	add	s0,sp,132
 a3a:	0000                	unimp
 a3c:	0140                	add	s0,sp,132
 a3e:	0000                	unimp
 a40:	0140                	add	s0,sp,132
 a42:	0000                	unimp
 a44:	0140                	add	s0,sp,132
 a46:	0000                	unimp
 a48:	0140                	add	s0,sp,132
 a4a:	0000                	unimp
 a4c:	0140                	add	s0,sp,132
 a4e:	0000                	unimp
 a50:	0140                	add	s0,sp,132
 a52:	0000                	unimp
 a54:	0140                	add	s0,sp,132
 a56:	0000                	unimp
 a58:	0140                	add	s0,sp,132
 a5a:	0000                	unimp
 a5c:	0140                	add	s0,sp,132
 a5e:	0000                	unimp
 a60:	0140                	add	s0,sp,132
 a62:	0000                	unimp
 a64:	0140                	add	s0,sp,132
 a66:	0000                	unimp
 a68:	0140                	add	s0,sp,132
 a6a:	0000                	unimp
 a6c:	0140                	add	s0,sp,132
 a6e:	0000                	unimp
 a70:	0140                	add	s0,sp,132
 a72:	0000                	unimp
 a74:	0140                	add	s0,sp,132
 a76:	0000                	unimp
 a78:	0140                	add	s0,sp,132
 a7a:	0000                	unimp
 a7c:	0140                	add	s0,sp,132
 a7e:	0000                	unimp
 a80:	0140                	add	s0,sp,132
 a82:	0000                	unimp
 a84:	0140                	add	s0,sp,132
 a86:	0000                	unimp
 a88:	0140                	add	s0,sp,132
 a8a:	0000                	unimp
 a8c:	0140                	add	s0,sp,132
 a8e:	0000                	unimp
 a90:	0140                	add	s0,sp,132
 a92:	0000                	unimp
 a94:	0140                	add	s0,sp,132
 a96:	0000                	unimp
 a98:	0140                	add	s0,sp,132
 a9a:	0000                	unimp
 a9c:	0140                	add	s0,sp,132
 a9e:	0000                	unimp
 aa0:	0140                	add	s0,sp,132
 aa2:	0000                	unimp
 aa4:	0140                	add	s0,sp,132
 aa6:	0000                	unimp
 aa8:	0140                	add	s0,sp,132
 aaa:	0000                	unimp
 aac:	0140                	add	s0,sp,132
 aae:	0000                	unimp
 ab0:	0140                	add	s0,sp,132
 ab2:	0000                	unimp
 ab4:	0140                	add	s0,sp,132
 ab6:	0000                	unimp
 ab8:	0140                	add	s0,sp,132
 aba:	0000                	unimp
 abc:	0140                	add	s0,sp,132
 abe:	0000                	unimp
 ac0:	0140                	add	s0,sp,132
 ac2:	0000                	unimp
 ac4:	0140                	add	s0,sp,132
 ac6:	0000                	unimp
 ac8:	0140                	add	s0,sp,132
 aca:	0000                	unimp
 acc:	0140                	add	s0,sp,132
 ace:	0000                	unimp
 ad0:	0140                	add	s0,sp,132
 ad2:	0000                	unimp
 ad4:	0140                	add	s0,sp,132
 ad6:	0000                	unimp
 ad8:	0140                	add	s0,sp,132
 ada:	0000                	unimp
 adc:	0140                	add	s0,sp,132
 ade:	0000                	unimp
 ae0:	0140                	add	s0,sp,132
 ae2:	0000                	unimp
 ae4:	0140                	add	s0,sp,132
 ae6:	0000                	unimp
 ae8:	0140                	add	s0,sp,132
 aea:	0000                	unimp
 aec:	0140                	add	s0,sp,132
 aee:	0000                	unimp
 af0:	0140                	add	s0,sp,132
 af2:	0000                	unimp
 af4:	0140                	add	s0,sp,132
 af6:	0000                	unimp
 af8:	0140                	add	s0,sp,132
 afa:	0000                	unimp
 afc:	0140                	add	s0,sp,132
 afe:	0000                	unimp
 b00:	0140                	add	s0,sp,132
 b02:	0000                	unimp
 b04:	0140                	add	s0,sp,132
 b06:	0000                	unimp
 b08:	0140                	add	s0,sp,132
 b0a:	0000                	unimp
 b0c:	0140                	add	s0,sp,132
 b0e:	0000                	unimp
 b10:	0140                	add	s0,sp,132
 b12:	0000                	unimp
 b14:	0140                	add	s0,sp,132
 b16:	0000                	unimp
 b18:	0140                	add	s0,sp,132
 b1a:	0000                	unimp
 b1c:	0140                	add	s0,sp,132
 b1e:	0000                	unimp
 b20:	0140                	add	s0,sp,132
 b22:	0000                	unimp
 b24:	0140                	add	s0,sp,132
 b26:	0000                	unimp
 b28:	0140                	add	s0,sp,132
 b2a:	0000                	unimp
 b2c:	0140                	add	s0,sp,132
 b2e:	0000                	unimp
 b30:	0140                	add	s0,sp,132
 b32:	0000                	unimp
 b34:	0140                	add	s0,sp,132
 b36:	0000                	unimp
 b38:	0140                	add	s0,sp,132
 b3a:	0000                	unimp
 b3c:	0140                	add	s0,sp,132
	...

00000b40 <irq_handler_s_trap>:
#if defined(__ICCRISCV__) && (IRQ_HANDLER_TRAP_AS_ISR == 1)
extern int __vector_s_table[];
HPM_ATTR_SUPERVISOR_INTERRUPT
#endif
void irq_handler_s_trap(void)
{
 b40:	7159                	add	sp,sp,-112
 b42:	d686                	sw	ra,108(sp)
 b44:	d496                	sw	t0,104(sp)
 b46:	d29a                	sw	t1,100(sp)
 b48:	d09e                	sw	t2,96(sp)
 b4a:	ceaa                	sw	a0,92(sp)
 b4c:	ccae                	sw	a1,88(sp)
 b4e:	cab2                	sw	a2,84(sp)
 b50:	c8b6                	sw	a3,80(sp)
 b52:	c6ba                	sw	a4,76(sp)
 b54:	c4be                	sw	a5,72(sp)
 b56:	c2c2                	sw	a6,68(sp)
 b58:	c0c6                	sw	a7,64(sp)
 b5a:	de72                	sw	t3,60(sp)
 b5c:	dc76                	sw	t4,56(sp)
 b5e:	da7a                	sw	t5,52(sp)
 b60:	d87e                	sw	t6,48(sp)
    long scause = read_csr(CSR_SCAUSE);
 b62:	142027f3          	csrr	a5,scause
 b66:	d43e                	sw	a5,40(sp)
 b68:	57a2                	lw	a5,40(sp)
 b6a:	d23e                	sw	a5,36(sp)
    long sepc = read_csr(CSR_SEPC);
 b6c:	141027f3          	csrr	a5,sepc
 b70:	d03e                	sw	a5,32(sp)
 b72:	5782                	lw	a5,32(sp)
 b74:	d63e                	sw	a5,44(sp)
    long sstatus = read_csr(CSR_SSTATUS);
 b76:	100027f3          	csrr	a5,sstatus
 b7a:	ce3e                	sw	a5,28(sp)
 b7c:	47f2                	lw	a5,28(sp)
 b7e:	cc3e                	sw	a5,24(sp)
#else
    __asm volatile("" : : : "a7", "a0", "a1", "a2", "a3");
#endif

    /* Do your trap handling */
    if ((scause & CSR_SCAUSE_INTERRUPT_MASK) && ((scause & CSR_SCAUSE_EXCEPTION_CODE_MASK) == IRQ_S_TIMER)) {
 b80:	5792                	lw	a5,36(sp)
 b82:	0007dd63          	bgez	a5,b9c <irq_handler_s_trap+0x5c>
 b86:	5792                	lw	a5,36(sp)
 b88:	3ff7f713          	and	a4,a5,1023
 b8c:	4795                	li	a5,5
 b8e:	00f71763          	bne	a4,a5,b9c <irq_handler_s_trap+0x5c>
        /* Machine timer interrupt */
        mchtmr_s_isr();
 b92:	80006097          	auipc	ra,0x80006
 b96:	892080e7          	jalr	-1902(ra) # 80006424 <mchtmr_s_isr>
 b9a:	a051                	j	c1e <irq_handler_s_trap+0xde>
        __plic_complete_irq(HPM_PLIC_BASE, HPM_PLIC_TARGET_S_MODE, irq_index);

    }
#endif

    else if ((scause & CSR_SCAUSE_INTERRUPT_MASK) && ((scause & CSR_SCAUSE_EXCEPTION_CODE_MASK) == IRQ_S_SOFT)) {
 b9c:	5792                	lw	a5,36(sp)
 b9e:	0407d263          	bgez	a5,be2 <irq_handler_s_trap+0xa2>
 ba2:	5792                	lw	a5,36(sp)
 ba4:	3ff7f713          	and	a4,a5,1023
 ba8:	4785                	li	a5,1
 baa:	02f71c63          	bne	a4,a5,be2 <irq_handler_s_trap+0xa2>
 bae:	e64007b7          	lui	a5,0xe6400
 bb2:	ca3e                	sw	a5,20(sp)
 bb4:	c802                	sw	zero,16(sp)
            (target << HPM_PLIC_CLAIM_SHIFT_PER_TARGET));
 bb6:	47c2                	lw	a5,16(sp)
 bb8:	00c79713          	sll	a4,a5,0xc
            HPM_PLIC_CLAIM_OFFSET +
 bbc:	47d2                	lw	a5,20(sp)
 bbe:	973e                	add	a4,a4,a5
 bc0:	002007b7          	lui	a5,0x200
 bc4:	0791                	add	a5,a5,4 # 200004 <__fast_ram_bss_end__+0x4>
 bc6:	97ba                	add	a5,a5,a4
    volatile uint32_t *claim_addr = (volatile uint32_t *)(base +
 bc8:	c63e                	sw	a5,12(sp)
    return *claim_addr;
 bca:	47b2                	lw	a5,12(sp)
 bcc:	439c                	lw	a5,0(a5)
}
 bce:	0001                	nop
        /* Machine SWI interrupt */
        intc_m_claim_swi();
        swi_s_isr();
 bd0:	80006097          	auipc	ra,0x80006
 bd4:	850080e7          	jalr	-1968(ra) # 80006420 <swi_s_isr>
 * @brief   Complete software interrupt for supervisor mode
 *
 */
ATTR_ALWAYS_INLINE static inline void intc_s_complete_swi(void)
{
    clear_csr(CSR_SIP, CSR_SIP_SSIP_MASK);
 bd8:	4789                	li	a5,2
 bda:	1447b073          	csrc	sip,a5
}
 bde:	0001                	nop
        intc_s_complete_swi();
 be0:	a83d                	j	c1e <irq_handler_s_trap+0xde>
    } else if (!(scause & CSR_SCAUSE_INTERRUPT_MASK) && ((scause & CSR_SCAUSE_EXCEPTION_CODE_MASK) == MCAUSE_ECALL_FROM_SUPERVISOR_MODE)) {
 be2:	5792                	lw	a5,36(sp)
 be4:	0207c663          	bltz	a5,c10 <irq_handler_s_trap+0xd0>
 be8:	5792                	lw	a5,36(sp)
 bea:	3ff7f713          	and	a4,a5,1023
 bee:	47a5                	li	a5,9
 bf0:	02f71063          	bne	a4,a5,c10 <irq_handler_s_trap+0xd0>
        /* Machine Syscal call */
        __asm volatile(
 bf4:	800067b7          	lui	a5,0x80006
 bf8:	3d478793          	add	a5,a5,980 # 800063d4 <syscall_handler>
 bfc:	8736                	mv	a4,a3
 bfe:	86b2                	mv	a3,a2
 c00:	862e                	mv	a2,a1
 c02:	85aa                	mv	a1,a0
 c04:	8546                	mv	a0,a7
 c06:	9782                	jalr	a5
        "mv a0, a7\n"
        #endif
        "jalr %0\n"
        : : "r"(syscall_handler) : "a4"
        );
        sepc += 4;
 c08:	57b2                	lw	a5,44(sp)
 c0a:	0791                	add	a5,a5,4
 c0c:	d63e                	sw	a5,44(sp)
 c0e:	a801                	j	c1e <irq_handler_s_trap+0xde>
    } else {
        sepc = exception_s_handler(scause, sepc);
 c10:	55b2                	lw	a1,44(sp)
 c12:	5512                	lw	a0,36(sp)
 c14:	80005097          	auipc	ra,0x80005
 c18:	7fe080e7          	jalr	2046(ra) # 80006412 <exception_s_handler>
 c1c:	d62a                	sw	a0,44(sp)
    }

    /* Restore CSR */
    write_csr(CSR_SSTATUS, sstatus);
 c1e:	47e2                	lw	a5,24(sp)
 c20:	10079073          	csrw	sstatus,a5
    write_csr(CSR_SEPC, sepc);
 c24:	57b2                	lw	a5,44(sp)
 c26:	14179073          	csrw	sepc,a5
}
 c2a:	0001                	nop
 c2c:	50b6                	lw	ra,108(sp)
 c2e:	52a6                	lw	t0,104(sp)
 c30:	5316                	lw	t1,100(sp)
 c32:	5386                	lw	t2,96(sp)
 c34:	4576                	lw	a0,92(sp)
 c36:	45e6                	lw	a1,88(sp)
 c38:	4656                	lw	a2,84(sp)
 c3a:	46c6                	lw	a3,80(sp)
 c3c:	4736                	lw	a4,76(sp)
 c3e:	47a6                	lw	a5,72(sp)
 c40:	4816                	lw	a6,68(sp)
 c42:	4886                	lw	a7,64(sp)
 c44:	5e72                	lw	t3,60(sp)
 c46:	5ee2                	lw	t4,56(sp)
 c48:	5f52                	lw	t5,52(sp)
 c4a:	5fc2                	lw	t6,48(sp)
 c4c:	6165                	add	sp,sp,112
 c4e:	10200073          	sret
 c52:	0000                	unimp
 c54:	0000                	unimp
	...

Disassembly of section .text:

80003ca8 <__udivdi3>:
80003ca8:	88aa                	mv	a7,a0
80003caa:	832e                	mv	t1,a1
80003cac:	8732                	mv	a4,a2
80003cae:	882a                	mv	a6,a0
80003cb0:	87ae                	mv	a5,a1
80003cb2:	20069163          	bnez	a3,80003eb4 <__udivdi3+0x20c>
80003cb6:	8001c5b7          	lui	a1,0x8001c
80003cba:	63c58593          	add	a1,a1,1596 # 8001c63c <__clz_tab>
80003cbe:	0ac37f63          	bgeu	t1,a2,80003d7c <__udivdi3+0xd4>
80003cc2:	66c1                	lui	a3,0x10
80003cc4:	0ad67563          	bgeu	a2,a3,80003d6e <__udivdi3+0xc6>
80003cc8:	10063693          	sltiu	a3,a2,256
80003ccc:	0016b693          	seqz	a3,a3
80003cd0:	068e                	sll	a3,a3,0x3
80003cd2:	00d65533          	srl	a0,a2,a3
80003cd6:	95aa                	add	a1,a1,a0
80003cd8:	0005c583          	lbu	a1,0(a1)
80003cdc:	02000513          	li	a0,32
80003ce0:	96ae                	add	a3,a3,a1
80003ce2:	40d505b3          	sub	a1,a0,a3
80003ce6:	00d50b63          	beq	a0,a3,80003cfc <__udivdi3+0x54>
80003cea:	00b317b3          	sll	a5,t1,a1
80003cee:	00d8d6b3          	srl	a3,a7,a3
80003cf2:	00b61733          	sll	a4,a2,a1
80003cf6:	8fd5                	or	a5,a5,a3
80003cf8:	00b89833          	sll	a6,a7,a1
80003cfc:	01075593          	srl	a1,a4,0x10
80003d00:	02b7d333          	divu	t1,a5,a1
80003d04:	08074633          	zext.h	a2,a4
80003d08:	02b7f7b3          	remu	a5,a5,a1
80003d0c:	851a                	mv	a0,t1
80003d0e:	026608b3          	mul	a7,a2,t1
80003d12:	01079693          	sll	a3,a5,0x10
80003d16:	01085793          	srl	a5,a6,0x10
80003d1a:	8fd5                	or	a5,a5,a3
80003d1c:	0117fc63          	bgeu	a5,a7,80003d34 <__udivdi3+0x8c>
80003d20:	97ba                	add	a5,a5,a4
80003d22:	fff30513          	add	a0,t1,-1
80003d26:	00e7e763          	bltu	a5,a4,80003d34 <__udivdi3+0x8c>
80003d2a:	0117f563          	bgeu	a5,a7,80003d34 <__udivdi3+0x8c>
80003d2e:	ffe30513          	add	a0,t1,-2
80003d32:	97ba                	add	a5,a5,a4
80003d34:	411787b3          	sub	a5,a5,a7
80003d38:	02b7d8b3          	divu	a7,a5,a1
80003d3c:	08084833          	zext.h	a6,a6
80003d40:	02b7f7b3          	remu	a5,a5,a1
80003d44:	031606b3          	mul	a3,a2,a7
80003d48:	07c2                	sll	a5,a5,0x10
80003d4a:	00f86833          	or	a6,a6,a5
80003d4e:	87c6                	mv	a5,a7
80003d50:	00d87b63          	bgeu	a6,a3,80003d66 <__udivdi3+0xbe>
80003d54:	983a                	add	a6,a6,a4
80003d56:	fff88793          	add	a5,a7,-1
80003d5a:	00e86663          	bltu	a6,a4,80003d66 <__udivdi3+0xbe>
80003d5e:	00d87463          	bgeu	a6,a3,80003d66 <__udivdi3+0xbe>
80003d62:	ffe88793          	add	a5,a7,-2
80003d66:	0542                	sll	a0,a0,0x10
80003d68:	8d5d                	or	a0,a0,a5
80003d6a:	4581                	li	a1,0
80003d6c:	8082                	ret
80003d6e:	01000537          	lui	a0,0x1000
80003d72:	46e1                	li	a3,24
80003d74:	f4a67fe3          	bgeu	a2,a0,80003cd2 <__udivdi3+0x2a>
80003d78:	46c1                	li	a3,16
80003d7a:	bfa1                	j	80003cd2 <__udivdi3+0x2a>
80003d7c:	4681                	li	a3,0
80003d7e:	ca09                	beqz	a2,80003d90 <__udivdi3+0xe8>
80003d80:	67c1                	lui	a5,0x10
80003d82:	08f67d63          	bgeu	a2,a5,80003e1c <__udivdi3+0x174>
80003d86:	10063693          	sltiu	a3,a2,256
80003d8a:	0016b693          	seqz	a3,a3
80003d8e:	068e                	sll	a3,a3,0x3
80003d90:	00d657b3          	srl	a5,a2,a3
80003d94:	95be                	add	a1,a1,a5
80003d96:	0005c783          	lbu	a5,0(a1)
80003d9a:	97b6                	add	a5,a5,a3
80003d9c:	02000693          	li	a3,32
80003da0:	40f685b3          	sub	a1,a3,a5
80003da4:	08f69363          	bne	a3,a5,80003e2a <__udivdi3+0x182>
80003da8:	40c307b3          	sub	a5,t1,a2
80003dac:	4585                	li	a1,1
80003dae:	01075893          	srl	a7,a4,0x10
80003db2:	0317de33          	divu	t3,a5,a7
80003db6:	08074633          	zext.h	a2,a4
80003dba:	01085693          	srl	a3,a6,0x10
80003dbe:	0317f7b3          	remu	a5,a5,a7
80003dc2:	8572                	mv	a0,t3
80003dc4:	03c60333          	mul	t1,a2,t3
80003dc8:	07c2                	sll	a5,a5,0x10
80003dca:	8fd5                	or	a5,a5,a3
80003dcc:	0067fc63          	bgeu	a5,t1,80003de4 <__udivdi3+0x13c>
80003dd0:	97ba                	add	a5,a5,a4
80003dd2:	fffe0513          	add	a0,t3,-1
80003dd6:	00e7e763          	bltu	a5,a4,80003de4 <__udivdi3+0x13c>
80003dda:	0067f563          	bgeu	a5,t1,80003de4 <__udivdi3+0x13c>
80003dde:	ffee0513          	add	a0,t3,-2
80003de2:	97ba                	add	a5,a5,a4
80003de4:	406787b3          	sub	a5,a5,t1
80003de8:	0317d333          	divu	t1,a5,a7
80003dec:	08084833          	zext.h	a6,a6
80003df0:	0317f7b3          	remu	a5,a5,a7
80003df4:	026606b3          	mul	a3,a2,t1
80003df8:	07c2                	sll	a5,a5,0x10
80003dfa:	00f86833          	or	a6,a6,a5
80003dfe:	879a                	mv	a5,t1
80003e00:	00d87b63          	bgeu	a6,a3,80003e16 <__udivdi3+0x16e>
80003e04:	983a                	add	a6,a6,a4
80003e06:	fff30793          	add	a5,t1,-1
80003e0a:	00e86663          	bltu	a6,a4,80003e16 <__udivdi3+0x16e>
80003e0e:	00d87463          	bgeu	a6,a3,80003e16 <__udivdi3+0x16e>
80003e12:	ffe30793          	add	a5,t1,-2
80003e16:	0542                	sll	a0,a0,0x10
80003e18:	8d5d                	or	a0,a0,a5
80003e1a:	8082                	ret
80003e1c:	010007b7          	lui	a5,0x1000
80003e20:	46e1                	li	a3,24
80003e22:	f6f677e3          	bgeu	a2,a5,80003d90 <__udivdi3+0xe8>
80003e26:	46c1                	li	a3,16
80003e28:	b7a5                	j	80003d90 <__udivdi3+0xe8>
80003e2a:	00b61733          	sll	a4,a2,a1
80003e2e:	00f356b3          	srl	a3,t1,a5
80003e32:	01075513          	srl	a0,a4,0x10
80003e36:	00b31333          	sll	t1,t1,a1
80003e3a:	00f8d7b3          	srl	a5,a7,a5
80003e3e:	0067e7b3          	or	a5,a5,t1
80003e42:	02a6d333          	divu	t1,a3,a0
80003e46:	00b89833          	sll	a6,a7,a1
80003e4a:	08074633          	zext.h	a2,a4
80003e4e:	02a6f6b3          	remu	a3,a3,a0
80003e52:	026608b3          	mul	a7,a2,t1
80003e56:	01069593          	sll	a1,a3,0x10
80003e5a:	0107d693          	srl	a3,a5,0x10
80003e5e:	8ecd                	or	a3,a3,a1
80003e60:	859a                	mv	a1,t1
80003e62:	0116fc63          	bgeu	a3,a7,80003e7a <__udivdi3+0x1d2>
80003e66:	96ba                	add	a3,a3,a4
80003e68:	fff30593          	add	a1,t1,-1
80003e6c:	00e6e763          	bltu	a3,a4,80003e7a <__udivdi3+0x1d2>
80003e70:	0116f563          	bgeu	a3,a7,80003e7a <__udivdi3+0x1d2>
80003e74:	ffe30593          	add	a1,t1,-2
80003e78:	96ba                	add	a3,a3,a4
80003e7a:	411686b3          	sub	a3,a3,a7
80003e7e:	02a6d8b3          	divu	a7,a3,a0
80003e82:	0807c7b3          	zext.h	a5,a5
80003e86:	02a6f6b3          	remu	a3,a3,a0
80003e8a:	03160633          	mul	a2,a2,a7
80003e8e:	06c2                	sll	a3,a3,0x10
80003e90:	8fd5                	or	a5,a5,a3
80003e92:	86c6                	mv	a3,a7
80003e94:	00c7fc63          	bgeu	a5,a2,80003eac <__udivdi3+0x204>
80003e98:	97ba                	add	a5,a5,a4
80003e9a:	fff88693          	add	a3,a7,-1
80003e9e:	00e7e763          	bltu	a5,a4,80003eac <__udivdi3+0x204>
80003ea2:	00c7f563          	bgeu	a5,a2,80003eac <__udivdi3+0x204>
80003ea6:	ffe88693          	add	a3,a7,-2
80003eaa:	97ba                	add	a5,a5,a4
80003eac:	05c2                	sll	a1,a1,0x10
80003eae:	8f91                	sub	a5,a5,a2
80003eb0:	8dd5                	or	a1,a1,a3
80003eb2:	bdf5                	j	80003dae <__udivdi3+0x106>
80003eb4:	12d5ef63          	bltu	a1,a3,80003ff2 <__udivdi3+0x34a>
80003eb8:	67c1                	lui	a5,0x10
80003eba:	02f6ff63          	bgeu	a3,a5,80003ef8 <__udivdi3+0x250>
80003ebe:	1006b713          	sltiu	a4,a3,256
80003ec2:	00173713          	seqz	a4,a4
80003ec6:	070e                	sll	a4,a4,0x3
80003ec8:	8001c7b7          	lui	a5,0x8001c
80003ecc:	00e6d5b3          	srl	a1,a3,a4
80003ed0:	63c78793          	add	a5,a5,1596 # 8001c63c <__clz_tab>
80003ed4:	97ae                	add	a5,a5,a1
80003ed6:	0007c783          	lbu	a5,0(a5)
80003eda:	97ba                	add	a5,a5,a4
80003edc:	02000713          	li	a4,32
80003ee0:	40f705b3          	sub	a1,a4,a5
80003ee4:	02f71163          	bne	a4,a5,80003f06 <__udivdi3+0x25e>
80003ee8:	4505                	li	a0,1
80003eea:	e866e1e3          	bltu	a3,t1,80003d6c <__udivdi3+0xc4>
80003eee:	00c8b533          	sltu	a0,a7,a2
80003ef2:	00153513          	seqz	a0,a0
80003ef6:	8082                	ret
80003ef8:	010007b7          	lui	a5,0x1000
80003efc:	4761                	li	a4,24
80003efe:	fcf6f5e3          	bgeu	a3,a5,80003ec8 <__udivdi3+0x220>
80003f02:	4741                	li	a4,16
80003f04:	b7d1                	j	80003ec8 <__udivdi3+0x220>
80003f06:	00f65733          	srl	a4,a2,a5
80003f0a:	00b696b3          	sll	a3,a3,a1
80003f0e:	8ed9                	or	a3,a3,a4
80003f10:	00f35733          	srl	a4,t1,a5
80003f14:	00b31333          	sll	t1,t1,a1
80003f18:	00f8d7b3          	srl	a5,a7,a5
80003f1c:	0067e7b3          	or	a5,a5,t1
80003f20:	0106d313          	srl	t1,a3,0x10
80003f24:	02675eb3          	divu	t4,a4,t1
80003f28:	0806c833          	zext.h	a6,a3
80003f2c:	00b61633          	sll	a2,a2,a1
80003f30:	02677733          	remu	a4,a4,t1
80003f34:	03d80e33          	mul	t3,a6,t4
80003f38:	01071513          	sll	a0,a4,0x10
80003f3c:	0107d713          	srl	a4,a5,0x10
80003f40:	8f49                	or	a4,a4,a0
80003f42:	8576                	mv	a0,t4
80003f44:	01c77c63          	bgeu	a4,t3,80003f5c <__udivdi3+0x2b4>
80003f48:	9736                	add	a4,a4,a3
80003f4a:	fffe8513          	add	a0,t4,-1
80003f4e:	00d76763          	bltu	a4,a3,80003f5c <__udivdi3+0x2b4>
80003f52:	01c77563          	bgeu	a4,t3,80003f5c <__udivdi3+0x2b4>
80003f56:	ffee8513          	add	a0,t4,-2
80003f5a:	9736                	add	a4,a4,a3
80003f5c:	41c70733          	sub	a4,a4,t3
80003f60:	02675e33          	divu	t3,a4,t1
80003f64:	0807c7b3          	zext.h	a5,a5
80003f68:	02677733          	remu	a4,a4,t1
80003f6c:	03c80833          	mul	a6,a6,t3
80003f70:	0742                	sll	a4,a4,0x10
80003f72:	8fd9                	or	a5,a5,a4
80003f74:	8772                	mv	a4,t3
80003f76:	0107fc63          	bgeu	a5,a6,80003f8e <__udivdi3+0x2e6>
80003f7a:	97b6                	add	a5,a5,a3
80003f7c:	fffe0713          	add	a4,t3,-1
80003f80:	00d7e763          	bltu	a5,a3,80003f8e <__udivdi3+0x2e6>
80003f84:	0107f563          	bgeu	a5,a6,80003f8e <__udivdi3+0x2e6>
80003f88:	ffee0713          	add	a4,t3,-2
80003f8c:	97b6                	add	a5,a5,a3
80003f8e:	0542                	sll	a0,a0,0x10
80003f90:	6e41                	lui	t3,0x10
80003f92:	8d59                	or	a0,a0,a4
80003f94:	fffe0693          	add	a3,t3,-1 # ffff <HEAP_SIZE+0xbfff>
80003f98:	00d57733          	and	a4,a0,a3
80003f9c:	410787b3          	sub	a5,a5,a6
80003fa0:	8ef1                	and	a3,a3,a2
80003fa2:	01055813          	srl	a6,a0,0x10
80003fa6:	8241                	srl	a2,a2,0x10
80003fa8:	02d70333          	mul	t1,a4,a3
80003fac:	02d806b3          	mul	a3,a6,a3
80003fb0:	02c70733          	mul	a4,a4,a2
80003fb4:	02c80833          	mul	a6,a6,a2
80003fb8:	00d70633          	add	a2,a4,a3
80003fbc:	01035713          	srl	a4,t1,0x10
80003fc0:	9732                	add	a4,a4,a2
80003fc2:	00d77363          	bgeu	a4,a3,80003fc8 <__udivdi3+0x320>
80003fc6:	9872                	add	a6,a6,t3
80003fc8:	01075693          	srl	a3,a4,0x10
80003fcc:	96c2                	add	a3,a3,a6
80003fce:	02d7e063          	bltu	a5,a3,80003fee <__udivdi3+0x346>
80003fd2:	d8d79ce3          	bne	a5,a3,80003d6a <__udivdi3+0xc2>
80003fd6:	67c1                	lui	a5,0x10
80003fd8:	17fd                	add	a5,a5,-1 # ffff <HEAP_SIZE+0xbfff>
80003fda:	8f7d                	and	a4,a4,a5
80003fdc:	0742                	sll	a4,a4,0x10
80003fde:	00f37333          	and	t1,t1,a5
80003fe2:	00b898b3          	sll	a7,a7,a1
80003fe6:	971a                	add	a4,a4,t1
80003fe8:	4581                	li	a1,0
80003fea:	d8e8f1e3          	bgeu	a7,a4,80003d6c <__udivdi3+0xc4>
80003fee:	157d                	add	a0,a0,-1 # ffffff <_stack+0xdf7fff>
80003ff0:	bbad                	j	80003d6a <__udivdi3+0xc2>
80003ff2:	4581                	li	a1,0
80003ff4:	4501                	li	a0,0
80003ff6:	8082                	ret

80003ff8 <__adddf3>:
80003ff8:	00100837          	lui	a6,0x100
80003ffc:	187d                	add	a6,a6,-1 # fffff <__fw_size__+0xe276f>
80003ffe:	00b87333          	and	t1,a6,a1
80004002:	0145d713          	srl	a4,a1,0x14
80004006:	7ff77893          	and	a7,a4,2047
8000400a:	01d55793          	srl	a5,a0,0x1d
8000400e:	00331713          	sll	a4,t1,0x3
80004012:	00d87833          	and	a6,a6,a3
80004016:	0146d313          	srl	t1,a3,0x14
8000401a:	8fd9                	or	a5,a5,a4
8000401c:	7ff37313          	and	t1,t1,2047
80004020:	01d65713          	srl	a4,a2,0x1d
80004024:	080e                	sll	a6,a6,0x3
80004026:	81fd                	srl	a1,a1,0x1f
80004028:	82fd                	srl	a3,a3,0x1f
8000402a:	050e                	sll	a0,a0,0x3
8000402c:	01076733          	or	a4,a4,a6
80004030:	060e                	sll	a2,a2,0x3
80004032:	40688e33          	sub	t3,a7,t1
80004036:	22d59963          	bne	a1,a3,80004268 <__adddf3+0x270>
8000403a:	0fc05463          	blez	t3,80004122 <__adddf3+0x12a>
8000403e:	02031a63          	bnez	t1,80004072 <__adddf3+0x7a>
80004042:	00c766b3          	or	a3,a4,a2
80004046:	52068363          	beqz	a3,8000456c <__adddf3+0x574>
8000404a:	fffe0813          	add	a6,t3,-1
8000404e:	00081b63          	bnez	a6,80004064 <__adddf3+0x6c>
80004052:	962a                	add	a2,a2,a0
80004054:	00a636b3          	sltu	a3,a2,a0
80004058:	973e                	add	a4,a4,a5
8000405a:	8532                	mv	a0,a2
8000405c:	00d707b3          	add	a5,a4,a3
80004060:	4885                	li	a7,1
80004062:	a8b1                	j	800040be <__adddf3+0xc6>
80004064:	7ff00693          	li	a3,2047
80004068:	00de1c63          	bne	t3,a3,80004080 <__adddf3+0x88>
8000406c:	7ff00893          	li	a7,2047
80004070:	a245                	j	80004210 <__adddf3+0x218>
80004072:	7ff00693          	li	a3,2047
80004076:	18d88d63          	beq	a7,a3,80004210 <__adddf3+0x218>
8000407a:	8872                	mv	a6,t3
8000407c:	29771713          	bset	a4,a4,0x17
80004080:	03800693          	li	a3,56
80004084:	0906ca63          	blt	a3,a6,80004118 <__adddf3+0x120>
80004088:	46fd                	li	a3,31
8000408a:	0706c063          	blt	a3,a6,800040ea <__adddf3+0xf2>
8000408e:	02000313          	li	t1,32
80004092:	41030333          	sub	t1,t1,a6
80004096:	006716b3          	sll	a3,a4,t1
8000409a:	01065e33          	srl	t3,a2,a6
8000409e:	00661333          	sll	t1,a2,t1
800040a2:	01c6e6b3          	or	a3,a3,t3
800040a6:	00603333          	snez	t1,t1
800040aa:	0066e6b3          	or	a3,a3,t1
800040ae:	01075833          	srl	a6,a4,a6
800040b2:	9536                	add	a0,a0,a3
800040b4:	983e                	add	a6,a6,a5
800040b6:	00d536b3          	sltu	a3,a0,a3
800040ba:	00d807b3          	add	a5,a6,a3
800040be:	00879713          	sll	a4,a5,0x8
800040c2:	14075763          	bgez	a4,80004210 <__adddf3+0x218>
800040c6:	0885                	add	a7,a7,1
800040c8:	7ff00713          	li	a4,2047
800040cc:	48e88d63          	beq	a7,a4,80004566 <__adddf3+0x56e>
800040d0:	00155713          	srl	a4,a0,0x1
800040d4:	8905                	and	a0,a0,1
800040d6:	fff7f693          	and	a3,a5,-1
800040da:	8d59                	or	a0,a0,a4
800040dc:	07fe                	sll	a5,a5,0x1f
800040de:	8d5d                	or	a0,a0,a5
800040e0:	49769693          	bclr	a3,a3,0x17
800040e4:	0016d793          	srl	a5,a3,0x1
800040e8:	a225                	j	80004210 <__adddf3+0x218>
800040ea:	fe080693          	add	a3,a6,-32
800040ee:	02000e13          	li	t3,32
800040f2:	00d756b3          	srl	a3,a4,a3
800040f6:	4301                	li	t1,0
800040f8:	01c80863          	beq	a6,t3,80004108 <__adddf3+0x110>
800040fc:	04000313          	li	t1,64
80004100:	41030333          	sub	t1,t1,a6
80004104:	00671333          	sll	t1,a4,t1
80004108:	00c36333          	or	t1,t1,a2
8000410c:	00603333          	snez	t1,t1
80004110:	0066e6b3          	or	a3,a3,t1
80004114:	4801                	li	a6,0
80004116:	bf71                	j	800040b2 <__adddf3+0xba>
80004118:	00c766b3          	or	a3,a4,a2
8000411c:	00d036b3          	snez	a3,a3
80004120:	bfd5                	j	80004114 <__adddf3+0x11c>
80004122:	0a0e0a63          	beqz	t3,800041d6 <__adddf3+0x1de>
80004126:	411306b3          	sub	a3,t1,a7
8000412a:	02089163          	bnez	a7,8000414c <__adddf3+0x154>
8000412e:	00a7e833          	or	a6,a5,a0
80004132:	42080263          	beqz	a6,80004556 <__adddf3+0x55e>
80004136:	fff68813          	add	a6,a3,-1 # ffff <HEAP_SIZE+0xbfff>
8000413a:	f0080ce3          	beqz	a6,80004052 <__adddf3+0x5a>
8000413e:	7ff00893          	li	a7,2047
80004142:	01169c63          	bne	a3,a7,8000415a <__adddf3+0x162>
80004146:	87ba                	mv	a5,a4
80004148:	8532                	mv	a0,a2
8000414a:	b70d                	j	8000406c <__adddf3+0x74>
8000414c:	7ff00813          	li	a6,2047
80004150:	ff030be3          	beq	t1,a6,80004146 <__adddf3+0x14e>
80004154:	8836                	mv	a6,a3
80004156:	29779793          	bset	a5,a5,0x17
8000415a:	03800693          	li	a3,56
8000415e:	0706c763          	blt	a3,a6,800041cc <__adddf3+0x1d4>
80004162:	46fd                	li	a3,31
80004164:	0306cd63          	blt	a3,a6,8000419e <__adddf3+0x1a6>
80004168:	02000893          	li	a7,32
8000416c:	410888b3          	sub	a7,a7,a6
80004170:	011796b3          	sll	a3,a5,a7
80004174:	01055e33          	srl	t3,a0,a6
80004178:	011518b3          	sll	a7,a0,a7
8000417c:	01c6e6b3          	or	a3,a3,t3
80004180:	011038b3          	snez	a7,a7
80004184:	0116e6b3          	or	a3,a3,a7
80004188:	0107d833          	srl	a6,a5,a6
8000418c:	9636                	add	a2,a2,a3
8000418e:	983a                	add	a6,a6,a4
80004190:	00d636b3          	sltu	a3,a2,a3
80004194:	8532                	mv	a0,a2
80004196:	00d807b3          	add	a5,a6,a3
8000419a:	889a                	mv	a7,t1
8000419c:	b70d                	j	800040be <__adddf3+0xc6>
8000419e:	fe080693          	add	a3,a6,-32
800041a2:	02000e13          	li	t3,32
800041a6:	00d7d6b3          	srl	a3,a5,a3
800041aa:	4881                	li	a7,0
800041ac:	01c80863          	beq	a6,t3,800041bc <__adddf3+0x1c4>
800041b0:	04000893          	li	a7,64
800041b4:	410888b3          	sub	a7,a7,a6
800041b8:	011798b3          	sll	a7,a5,a7
800041bc:	00a8e8b3          	or	a7,a7,a0
800041c0:	011038b3          	snez	a7,a7
800041c4:	0116e6b3          	or	a3,a3,a7
800041c8:	4801                	li	a6,0
800041ca:	b7c9                	j	8000418c <__adddf3+0x194>
800041cc:	00a7e6b3          	or	a3,a5,a0
800041d0:	00d036b3          	snez	a3,a3
800041d4:	bfd5                	j	800041c8 <__adddf3+0x1d0>
800041d6:	00188693          	add	a3,a7,1
800041da:	7fe6f813          	and	a6,a3,2046
800041de:	06081463          	bnez	a6,80004246 <__adddf3+0x24e>
800041e2:	00a7e6b3          	or	a3,a5,a0
800041e6:	04089563          	bnez	a7,80004230 <__adddf3+0x238>
800041ea:	36068963          	beqz	a3,8000455c <__adddf3+0x564>
800041ee:	00c766b3          	or	a3,a4,a2
800041f2:	ce99                	beqz	a3,80004210 <__adddf3+0x218>
800041f4:	962a                	add	a2,a2,a0
800041f6:	00a636b3          	sltu	a3,a2,a0
800041fa:	973e                	add	a4,a4,a5
800041fc:	00d707b3          	add	a5,a4,a3
80004200:	00879713          	sll	a4,a5,0x8
80004204:	8532                	mv	a0,a2
80004206:	00075563          	bgez	a4,80004210 <__adddf3+0x218>
8000420a:	4885                	li	a7,1
8000420c:	49779793          	bclr	a5,a5,0x17
80004210:	00757713          	and	a4,a0,7
80004214:	36070463          	beqz	a4,8000457c <__adddf3+0x584>
80004218:	00f57713          	and	a4,a0,15
8000421c:	4691                	li	a3,4
8000421e:	34d70f63          	beq	a4,a3,8000457c <__adddf3+0x584>
80004222:	00450713          	add	a4,a0,4
80004226:	00a736b3          	sltu	a3,a4,a0
8000422a:	97b6                	add	a5,a5,a3
8000422c:	853a                	mv	a0,a4
8000422e:	a6b9                	j	8000457c <__adddf3+0x584>
80004230:	da99                	beqz	a3,80004146 <__adddf3+0x14e>
80004232:	8e59                	or	a2,a2,a4
80004234:	e2060ce3          	beqz	a2,8000406c <__adddf3+0x74>
80004238:	4581                	li	a1,0
8000423a:	004007b7          	lui	a5,0x400
8000423e:	4501                	li	a0,0
80004240:	7ff00893          	li	a7,2047
80004244:	ae25                	j	8000457c <__adddf3+0x584>
80004246:	7ff00813          	li	a6,2047
8000424a:	31068c63          	beq	a3,a6,80004562 <__adddf3+0x56a>
8000424e:	962a                	add	a2,a2,a0
80004250:	00a63533          	sltu	a0,a2,a0
80004254:	973e                	add	a4,a4,a5
80004256:	972a                	add	a4,a4,a0
80004258:	01f71513          	sll	a0,a4,0x1f
8000425c:	8205                	srl	a2,a2,0x1
8000425e:	8d51                	or	a0,a0,a2
80004260:	00175793          	srl	a5,a4,0x1
80004264:	88b6                	mv	a7,a3
80004266:	b76d                	j	80004210 <__adddf3+0x218>
80004268:	0dc05a63          	blez	t3,8000433c <__adddf3+0x344>
8000426c:	08031563          	bnez	t1,800042f6 <__adddf3+0x2fe>
80004270:	00c766b3          	or	a3,a4,a2
80004274:	2e068c63          	beqz	a3,8000456c <__adddf3+0x574>
80004278:	fffe0693          	add	a3,t3,-1
8000427c:	ee81                	bnez	a3,80004294 <__adddf3+0x29c>
8000427e:	40c50633          	sub	a2,a0,a2
80004282:	00c536b3          	sltu	a3,a0,a2
80004286:	40e78733          	sub	a4,a5,a4
8000428a:	8532                	mv	a0,a2
8000428c:	40d707b3          	sub	a5,a4,a3
80004290:	4885                	li	a7,1
80004292:	a0b9                	j	800042e0 <__adddf3+0x2e8>
80004294:	7ff00813          	li	a6,2047
80004298:	dd0e0ae3          	beq	t3,a6,8000406c <__adddf3+0x74>
8000429c:	03800813          	li	a6,56
800042a0:	08d84a63          	blt	a6,a3,80004334 <__adddf3+0x33c>
800042a4:	487d                	li	a6,31
800042a6:	06d84063          	blt	a6,a3,80004306 <__adddf3+0x30e>
800042aa:	02000313          	li	t1,32
800042ae:	40d30333          	sub	t1,t1,a3
800042b2:	00d65e33          	srl	t3,a2,a3
800042b6:	00671833          	sll	a6,a4,t1
800042ba:	00661333          	sll	t1,a2,t1
800042be:	01c86833          	or	a6,a6,t3
800042c2:	00603333          	snez	t1,t1
800042c6:	00686633          	or	a2,a6,t1
800042ca:	00d756b3          	srl	a3,a4,a3
800042ce:	40c50633          	sub	a2,a0,a2
800042d2:	00c53733          	sltu	a4,a0,a2
800042d6:	40d786b3          	sub	a3,a5,a3
800042da:	8532                	mv	a0,a2
800042dc:	40e687b3          	sub	a5,a3,a4
800042e0:	00879713          	sll	a4,a5,0x8
800042e4:	f20756e3          	bgez	a4,80004210 <__adddf3+0x218>
800042e8:	00800837          	lui	a6,0x800
800042ec:	187d                	add	a6,a6,-1 # 7fffff <_stack+0x5f7fff>
800042ee:	0107f833          	and	a6,a5,a6
800042f2:	832a                	mv	t1,a0
800042f4:	aa5d                	j	800044aa <__adddf3+0x4b2>
800042f6:	7ff00693          	li	a3,2047
800042fa:	f0d88be3          	beq	a7,a3,80004210 <__adddf3+0x218>
800042fe:	86f2                	mv	a3,t3
80004300:	29771713          	bset	a4,a4,0x17
80004304:	bf61                	j	8000429c <__adddf3+0x2a4>
80004306:	fe068813          	add	a6,a3,-32
8000430a:	02000e13          	li	t3,32
8000430e:	01075833          	srl	a6,a4,a6
80004312:	4301                	li	t1,0
80004314:	01c68863          	beq	a3,t3,80004324 <__adddf3+0x32c>
80004318:	04000313          	li	t1,64
8000431c:	40d30333          	sub	t1,t1,a3
80004320:	00671333          	sll	t1,a4,t1
80004324:	00c36333          	or	t1,t1,a2
80004328:	00603333          	snez	t1,t1
8000432c:	00686633          	or	a2,a6,t1
80004330:	4681                	li	a3,0
80004332:	bf71                	j	800042ce <__adddf3+0x2d6>
80004334:	8e59                	or	a2,a2,a4
80004336:	00c03633          	snez	a2,a2
8000433a:	bfdd                	j	80004330 <__adddf3+0x338>
8000433c:	0c0e0563          	beqz	t3,80004406 <__adddf3+0x40e>
80004340:	41130833          	sub	a6,t1,a7
80004344:	02089b63          	bnez	a7,8000437a <__adddf3+0x382>
80004348:	00a7e5b3          	or	a1,a5,a0
8000434c:	22058263          	beqz	a1,80004570 <__adddf3+0x578>
80004350:	fff80593          	add	a1,a6,-1
80004354:	e991                	bnez	a1,80004368 <__adddf3+0x370>
80004356:	40a60533          	sub	a0,a2,a0
8000435a:	8f1d                	sub	a4,a4,a5
8000435c:	00a63633          	sltu	a2,a2,a0
80004360:	40c707b3          	sub	a5,a4,a2
80004364:	85b6                	mv	a1,a3
80004366:	b72d                	j	80004290 <__adddf3+0x298>
80004368:	7ff00893          	li	a7,2047
8000436c:	01181e63          	bne	a6,a7,80004388 <__adddf3+0x390>
80004370:	87ba                	mv	a5,a4
80004372:	8532                	mv	a0,a2
80004374:	7ff00893          	li	a7,2047
80004378:	a84d                	j	8000442a <__adddf3+0x432>
8000437a:	7ff00593          	li	a1,2047
8000437e:	feb309e3          	beq	t1,a1,80004370 <__adddf3+0x378>
80004382:	85c2                	mv	a1,a6
80004384:	29779793          	bset	a5,a5,0x17
80004388:	03800813          	li	a6,56
8000438c:	06b84963          	blt	a6,a1,800043fe <__adddf3+0x406>
80004390:	487d                	li	a6,31
80004392:	02b84f63          	blt	a6,a1,800043d0 <__adddf3+0x3d8>
80004396:	02000893          	li	a7,32
8000439a:	40b888b3          	sub	a7,a7,a1
8000439e:	00b55e33          	srl	t3,a0,a1
800043a2:	01179833          	sll	a6,a5,a7
800043a6:	011518b3          	sll	a7,a0,a7
800043aa:	01c86833          	or	a6,a6,t3
800043ae:	011038b3          	snez	a7,a7
800043b2:	01186533          	or	a0,a6,a7
800043b6:	00b7d5b3          	srl	a1,a5,a1
800043ba:	40a60533          	sub	a0,a2,a0
800043be:	40b705b3          	sub	a1,a4,a1
800043c2:	00a63633          	sltu	a2,a2,a0
800043c6:	40c587b3          	sub	a5,a1,a2
800043ca:	889a                	mv	a7,t1
800043cc:	85b6                	mv	a1,a3
800043ce:	bf09                	j	800042e0 <__adddf3+0x2e8>
800043d0:	fe058813          	add	a6,a1,-32
800043d4:	02000e13          	li	t3,32
800043d8:	0107d833          	srl	a6,a5,a6
800043dc:	4881                	li	a7,0
800043de:	01c58863          	beq	a1,t3,800043ee <__adddf3+0x3f6>
800043e2:	04000893          	li	a7,64
800043e6:	40b888b3          	sub	a7,a7,a1
800043ea:	011798b3          	sll	a7,a5,a7
800043ee:	00a8e8b3          	or	a7,a7,a0
800043f2:	011038b3          	snez	a7,a7
800043f6:	01186533          	or	a0,a6,a7
800043fa:	4581                	li	a1,0
800043fc:	bf7d                	j	800043ba <__adddf3+0x3c2>
800043fe:	8d5d                	or	a0,a0,a5
80004400:	00a03533          	snez	a0,a0
80004404:	bfdd                	j	800043fa <__adddf3+0x402>
80004406:	00188813          	add	a6,a7,1
8000440a:	7fe87813          	and	a6,a6,2046
8000440e:	06081863          	bnez	a6,8000447e <__adddf3+0x486>
80004412:	00a7e333          	or	t1,a5,a0
80004416:	00c76833          	or	a6,a4,a2
8000441a:	04089763          	bnez	a7,80004468 <__adddf3+0x470>
8000441e:	00031863          	bnez	t1,8000442e <__adddf3+0x436>
80004422:	0e080363          	beqz	a6,80004508 <__adddf3+0x510>
80004426:	87ba                	mv	a5,a4
80004428:	8532                	mv	a0,a2
8000442a:	85b6                	mv	a1,a3
8000442c:	b3d5                	j	80004210 <__adddf3+0x218>
8000442e:	de0801e3          	beqz	a6,80004210 <__adddf3+0x218>
80004432:	40c50333          	sub	t1,a0,a2
80004436:	00653e33          	sltu	t3,a0,t1
8000443a:	40e78833          	sub	a6,a5,a4
8000443e:	41c80833          	sub	a6,a6,t3
80004442:	00881e13          	sll	t3,a6,0x8
80004446:	000e5a63          	bgez	t3,8000445a <__adddf3+0x462>
8000444a:	40a60533          	sub	a0,a2,a0
8000444e:	8f1d                	sub	a4,a4,a5
80004450:	00a63633          	sltu	a2,a2,a0
80004454:	40c707b3          	sub	a5,a4,a2
80004458:	bfc9                	j	8000442a <__adddf3+0x432>
8000445a:	01036533          	or	a0,t1,a6
8000445e:	10050d63          	beqz	a0,80004578 <__adddf3+0x580>
80004462:	87c2                	mv	a5,a6
80004464:	851a                	mv	a0,t1
80004466:	b36d                	j	80004210 <__adddf3+0x218>
80004468:	00031863          	bnez	t1,80004478 <__adddf3+0x480>
8000446c:	dc0806e3          	beqz	a6,80004238 <__adddf3+0x240>
80004470:	87ba                	mv	a5,a4
80004472:	8532                	mv	a0,a2
80004474:	85b6                	mv	a1,a3
80004476:	bedd                	j	8000406c <__adddf3+0x74>
80004478:	be080ae3          	beqz	a6,8000406c <__adddf3+0x74>
8000447c:	bb75                	j	80004238 <__adddf3+0x240>
8000447e:	40c50e33          	sub	t3,a0,a2
80004482:	01c53eb3          	sltu	t4,a0,t3
80004486:	40e78833          	sub	a6,a5,a4
8000448a:	41d80833          	sub	a6,a6,t4
8000448e:	00881e93          	sll	t4,a6,0x8
80004492:	8372                	mv	t1,t3
80004494:	060ed563          	bgez	t4,800044fe <__adddf3+0x506>
80004498:	40a60333          	sub	t1,a2,a0
8000449c:	40f70833          	sub	a6,a4,a5
800044a0:	00663633          	sltu	a2,a2,t1
800044a4:	40c80833          	sub	a6,a6,a2
800044a8:	85b6                	mv	a1,a3
800044aa:	06080163          	beqz	a6,8000450c <__adddf3+0x514>
800044ae:	60081513          	clz	a0,a6
800044b2:	1561                	add	a0,a0,-8
800044b4:	02000793          	li	a5,32
800044b8:	8f89                	sub	a5,a5,a0
800044ba:	00a81833          	sll	a6,a6,a0
800044be:	00f357b3          	srl	a5,t1,a5
800044c2:	0107e7b3          	or	a5,a5,a6
800044c6:	00a31833          	sll	a6,t1,a0
800044ca:	09154063          	blt	a0,a7,8000454a <__adddf3+0x552>
800044ce:	41150533          	sub	a0,a0,a7
800044d2:	00150693          	add	a3,a0,1
800044d6:	477d                	li	a4,31
800044d8:	04d74563          	blt	a4,a3,80004522 <__adddf3+0x52a>
800044dc:	02000713          	li	a4,32
800044e0:	8f15                	sub	a4,a4,a3
800044e2:	00e79533          	sll	a0,a5,a4
800044e6:	00d85633          	srl	a2,a6,a3
800044ea:	00e81733          	sll	a4,a6,a4
800044ee:	8d51                	or	a0,a0,a2
800044f0:	00e03733          	snez	a4,a4
800044f4:	8d59                	or	a0,a0,a4
800044f6:	00d7d7b3          	srl	a5,a5,a3
800044fa:	4881                	li	a7,0
800044fc:	bb11                	j	80004210 <__adddf3+0x218>
800044fe:	010e6e33          	or	t3,t3,a6
80004502:	fa0e14e3          	bnez	t3,800044aa <__adddf3+0x4b2>
80004506:	4881                	li	a7,0
80004508:	4581                	li	a1,0
8000450a:	a8b1                	j	80004566 <__adddf3+0x56e>
8000450c:	60031793          	clz	a5,t1
80004510:	477d                	li	a4,31
80004512:	01878513          	add	a0,a5,24 # 400018 <_stack+0x1f8018>
80004516:	f8a75fe3          	bge	a4,a0,800044b4 <__adddf3+0x4bc>
8000451a:	17e1                	add	a5,a5,-8
8000451c:	00f317b3          	sll	a5,t1,a5
80004520:	b76d                	j	800044ca <__adddf3+0x4d2>
80004522:	1505                	add	a0,a0,-31
80004524:	02000613          	li	a2,32
80004528:	00a7d533          	srl	a0,a5,a0
8000452c:	4701                	li	a4,0
8000452e:	00c68763          	beq	a3,a2,8000453c <__adddf3+0x544>
80004532:	04000713          	li	a4,64
80004536:	8f15                	sub	a4,a4,a3
80004538:	00e79733          	sll	a4,a5,a4
8000453c:	00e86733          	or	a4,a6,a4
80004540:	00e03733          	snez	a4,a4
80004544:	8d59                	or	a0,a0,a4
80004546:	4781                	li	a5,0
80004548:	bf4d                	j	800044fa <__adddf3+0x502>
8000454a:	40a888b3          	sub	a7,a7,a0
8000454e:	49779793          	bclr	a5,a5,0x17
80004552:	8542                	mv	a0,a6
80004554:	b975                	j	80004210 <__adddf3+0x218>
80004556:	87ba                	mv	a5,a4
80004558:	8532                	mv	a0,a2
8000455a:	b329                	j	80004264 <__adddf3+0x26c>
8000455c:	87ba                	mv	a5,a4
8000455e:	8532                	mv	a0,a2
80004560:	b945                	j	80004210 <__adddf3+0x218>
80004562:	7ff00893          	li	a7,2047
80004566:	4781                	li	a5,0
80004568:	4501                	li	a0,0
8000456a:	a809                	j	8000457c <__adddf3+0x584>
8000456c:	88f2                	mv	a7,t3
8000456e:	b14d                	j	80004210 <__adddf3+0x218>
80004570:	87ba                	mv	a5,a4
80004572:	8532                	mv	a0,a2
80004574:	88c2                	mv	a7,a6
80004576:	bd55                	j	8000442a <__adddf3+0x432>
80004578:	4781                	li	a5,0
8000457a:	4581                	li	a1,0
8000457c:	00879713          	sll	a4,a5,0x8
80004580:	00075b63          	bgez	a4,80004596 <__adddf3+0x59e>
80004584:	0885                	add	a7,a7,1
80004586:	7ff00713          	li	a4,2047
8000458a:	49779793          	bclr	a5,a5,0x17
8000458e:	00e89463          	bne	a7,a4,80004596 <__adddf3+0x59e>
80004592:	4781                	li	a5,0
80004594:	4501                	li	a0,0
80004596:	01d79693          	sll	a3,a5,0x1d
8000459a:	810d                	srl	a0,a0,0x3
8000459c:	7ff00713          	li	a4,2047
800045a0:	8ec9                	or	a3,a3,a0
800045a2:	838d                	srl	a5,a5,0x3
800045a4:	00e89963          	bne	a7,a4,800045b6 <__adddf3+0x5be>
800045a8:	8edd                	or	a3,a3,a5
800045aa:	4781                	li	a5,0
800045ac:	c689                	beqz	a3,800045b6 <__adddf3+0x5be>
800045ae:	000807b7          	lui	a5,0x80
800045b2:	4681                	li	a3,0
800045b4:	4581                	li	a1,0
800045b6:	01489713          	sll	a4,a7,0x14
800045ba:	7ff00637          	lui	a2,0x7ff00
800045be:	07b2                	sll	a5,a5,0xc
800045c0:	8f71                	and	a4,a4,a2
800045c2:	83b1                	srl	a5,a5,0xc
800045c4:	8fd9                	or	a5,a5,a4
800045c6:	01f59713          	sll	a4,a1,0x1f
800045ca:	00e7e633          	or	a2,a5,a4
800045ce:	8536                	mv	a0,a3
800045d0:	85b2                	mv	a1,a2
800045d2:	8082                	ret

800045d4 <__divdf3>:
800045d4:	1141                	add	sp,sp,-16
800045d6:	882a                	mv	a6,a0
800045d8:	87aa                	mv	a5,a0
800045da:	0145d513          	srl	a0,a1,0x14
800045de:	00c59713          	sll	a4,a1,0xc
800045e2:	c622                	sw	s0,12(sp)
800045e4:	c426                	sw	s1,8(sp)
800045e6:	7ff57513          	and	a0,a0,2047
800045ea:	8331                	srl	a4,a4,0xc
800045ec:	81fd                	srl	a1,a1,0x1f
800045ee:	c149                	beqz	a0,80004670 <__divdf3+0x9c>
800045f0:	7ff00893          	li	a7,2047
800045f4:	0d150663          	beq	a0,a7,800046c0 <__divdf3+0xec>
800045f8:	01d85e93          	srl	t4,a6,0x1d
800045fc:	070e                	sll	a4,a4,0x3
800045fe:	00eeeeb3          	or	t4,t4,a4
80004602:	00381793          	sll	a5,a6,0x3
80004606:	c0150513          	add	a0,a0,-1023
8000460a:	297e9e93          	bset	t4,t4,0x17
8000460e:	4301                	li	t1,0
80004610:	0146d893          	srl	a7,a3,0x14
80004614:	00c69813          	sll	a6,a3,0xc
80004618:	7ff8f893          	and	a7,a7,2047
8000461c:	00c85813          	srl	a6,a6,0xc
80004620:	82fd                	srl	a3,a3,0x1f
80004622:	0c088163          	beqz	a7,800046e4 <__divdf3+0x110>
80004626:	7ff00713          	li	a4,2047
8000462a:	10e88863          	beq	a7,a4,8000473a <__divdf3+0x166>
8000462e:	01d65713          	srl	a4,a2,0x1d
80004632:	080e                	sll	a6,a6,0x3
80004634:	01076833          	or	a6,a4,a6
80004638:	00361f93          	sll	t6,a2,0x3
8000463c:	c0188893          	add	a7,a7,-1023
80004640:	29781813          	bset	a6,a6,0x17
80004644:	4701                	li	a4,0
80004646:	41150533          	sub	a0,a0,a7
8000464a:	00231893          	sll	a7,t1,0x2
8000464e:	00e8e8b3          	or	a7,a7,a4
80004652:	18fd                	add	a7,a7,-1
80004654:	4e39                	li	t3,14
80004656:	00d5c633          	xor	a2,a1,a3
8000465a:	111e6263          	bltu	t3,a7,8000475e <__divdf3+0x18a>
8000465e:	8001ce37          	lui	t3,0x8001c
80004662:	600e0e13          	add	t3,t3,1536 # 8001c600 <_lseek+0x918>
80004666:	21c8c8b3          	sh2add	a7,a7,t3
8000466a:	0008a883          	lw	a7,0(a7)
8000466e:	8882                	jr	a7
80004670:	01076eb3          	or	t4,a4,a6
80004674:	040e8f63          	beqz	t4,800046d2 <__divdf3+0xfe>
80004678:	c71d                	beqz	a4,800046a6 <__divdf3+0xd2>
8000467a:	60071793          	clz	a5,a4
8000467e:	ff578513          	add	a0,a5,-11 # 7fff5 <__fw_size__+0x62765>
80004682:	4ef5                	li	t4,29
80004684:	ff878893          	add	a7,a5,-8
80004688:	40ae8eb3          	sub	t4,t4,a0
8000468c:	01171733          	sll	a4,a4,a7
80004690:	01d85eb3          	srl	t4,a6,t4
80004694:	00eeeeb3          	or	t4,t4,a4
80004698:	01181733          	sll	a4,a6,a7
8000469c:	c0d00513          	li	a0,-1011
800046a0:	8d1d                	sub	a0,a0,a5
800046a2:	87ba                	mv	a5,a4
800046a4:	b7ad                	j	8000460e <__divdf3+0x3a>
800046a6:	60081e93          	clz	t4,a6
800046aa:	48f1                	li	a7,28
800046ac:	015e8513          	add	a0,t4,21
800046b0:	020e8793          	add	a5,t4,32
800046b4:	fca8d7e3          	bge	a7,a0,80004682 <__divdf3+0xae>
800046b8:	1ee1                	add	t4,t4,-8
800046ba:	01d81eb3          	sll	t4,a6,t4
800046be:	bff9                	j	8000469c <__divdf3+0xc8>
800046c0:	01076eb3          	or	t4,a4,a6
800046c4:	000e9b63          	bnez	t4,800046da <__divdf3+0x106>
800046c8:	4781                	li	a5,0
800046ca:	7ff00513          	li	a0,2047
800046ce:	4309                	li	t1,2
800046d0:	b781                	j	80004610 <__divdf3+0x3c>
800046d2:	4781                	li	a5,0
800046d4:	4501                	li	a0,0
800046d6:	4305                	li	t1,1
800046d8:	bf25                	j	80004610 <__divdf3+0x3c>
800046da:	8eba                	mv	t4,a4
800046dc:	7ff00513          	li	a0,2047
800046e0:	430d                	li	t1,3
800046e2:	b73d                	j	80004610 <__divdf3+0x3c>
800046e4:	00c86fb3          	or	t6,a6,a2
800046e8:	060f8263          	beqz	t6,8000474c <__divdf3+0x178>
800046ec:	02080a63          	beqz	a6,80004720 <__divdf3+0x14c>
800046f0:	60081e13          	clz	t3,a6
800046f4:	ff5e0893          	add	a7,t3,-11
800046f8:	4775                	li	a4,29
800046fa:	ff8e0f13          	add	t5,t3,-8
800046fe:	41170733          	sub	a4,a4,a7
80004702:	01e81833          	sll	a6,a6,t5
80004706:	00e65733          	srl	a4,a2,a4
8000470a:	01076733          	or	a4,a4,a6
8000470e:	01e61833          	sll	a6,a2,t5
80004712:	c0d00893          	li	a7,-1011
80004716:	8fc2                	mv	t6,a6
80004718:	41c888b3          	sub	a7,a7,t3
8000471c:	883a                	mv	a6,a4
8000471e:	b71d                	j	80004644 <__divdf3+0x70>
80004720:	60061713          	clz	a4,a2
80004724:	4f71                	li	t5,28
80004726:	01570893          	add	a7,a4,21 # e4200015 <__fast_ram_init_load_addr__+0x641df785>
8000472a:	02070e13          	add	t3,a4,32
8000472e:	fd1f55e3          	bge	t5,a7,800046f8 <__divdf3+0x124>
80004732:	1761                	add	a4,a4,-8
80004734:	00e61733          	sll	a4,a2,a4
80004738:	bfe9                	j	80004712 <__divdf3+0x13e>
8000473a:	00c86fb3          	or	t6,a6,a2
8000473e:	000f9b63          	bnez	t6,80004754 <__divdf3+0x180>
80004742:	4801                	li	a6,0
80004744:	7ff00893          	li	a7,2047
80004748:	4709                	li	a4,2
8000474a:	bdf5                	j	80004646 <__divdf3+0x72>
8000474c:	4801                	li	a6,0
8000474e:	4881                	li	a7,0
80004750:	4705                	li	a4,1
80004752:	bdd5                	j	80004646 <__divdf3+0x72>
80004754:	8fb2                	mv	t6,a2
80004756:	7ff00893          	li	a7,2047
8000475a:	470d                	li	a4,3
8000475c:	b5ed                	j	80004646 <__divdf3+0x72>
8000475e:	01d86663          	bltu	a6,t4,8000476a <__divdf3+0x196>
80004762:	290e9c63          	bne	t4,a6,800049fa <__divdf3+0x426>
80004766:	29f7ea63          	bltu	a5,t6,800049fa <__divdf3+0x426>
8000476a:	01fe9693          	sll	a3,t4,0x1f
8000476e:	0017d713          	srl	a4,a5,0x1
80004772:	01f79293          	sll	t0,a5,0x1f
80004776:	001ede93          	srl	t4,t4,0x1
8000477a:	00e6e7b3          	or	a5,a3,a4
8000477e:	00881313          	sll	t1,a6,0x8
80004782:	018fd593          	srl	a1,t6,0x18
80004786:	0065e5b3          	or	a1,a1,t1
8000478a:	01035313          	srl	t1,t1,0x10
8000478e:	026edf33          	divu	t5,t4,t1
80004792:	0805ce33          	zext.h	t3,a1
80004796:	0107d713          	srl	a4,a5,0x10
8000479a:	008f9893          	sll	a7,t6,0x8
8000479e:	026efeb3          	remu	t4,t4,t1
800047a2:	86fa                	mv	a3,t5
800047a4:	03ee0833          	mul	a6,t3,t5
800047a8:	0ec2                	sll	t4,t4,0x10
800047aa:	01d76733          	or	a4,a4,t4
800047ae:	01077c63          	bgeu	a4,a6,800047c6 <__divdf3+0x1f2>
800047b2:	972e                	add	a4,a4,a1
800047b4:	ffff0693          	add	a3,t5,-1
800047b8:	00b76763          	bltu	a4,a1,800047c6 <__divdf3+0x1f2>
800047bc:	01077563          	bgeu	a4,a6,800047c6 <__divdf3+0x1f2>
800047c0:	ffef0693          	add	a3,t5,-2
800047c4:	972e                	add	a4,a4,a1
800047c6:	41070733          	sub	a4,a4,a6
800047ca:	02675eb3          	divu	t4,a4,t1
800047ce:	0807c7b3          	zext.h	a5,a5
800047d2:	02677733          	remu	a4,a4,t1
800047d6:	03de0833          	mul	a6,t3,t4
800047da:	0742                	sll	a4,a4,0x10
800047dc:	8fd9                	or	a5,a5,a4
800047de:	8776                	mv	a4,t4
800047e0:	0107fc63          	bgeu	a5,a6,800047f8 <__divdf3+0x224>
800047e4:	97ae                	add	a5,a5,a1
800047e6:	fffe8713          	add	a4,t4,-1
800047ea:	00b7e763          	bltu	a5,a1,800047f8 <__divdf3+0x224>
800047ee:	0107f563          	bgeu	a5,a6,800047f8 <__divdf3+0x224>
800047f2:	ffee8713          	add	a4,t4,-2
800047f6:	97ae                	add	a5,a5,a1
800047f8:	06c2                	sll	a3,a3,0x10
800047fa:	6441                	lui	s0,0x10
800047fc:	00e6e3b3          	or	t2,a3,a4
80004800:	fff40e93          	add	t4,s0,-1 # ffff <HEAP_SIZE+0xbfff>
80004804:	01d3f733          	and	a4,t2,t4
80004808:	0108df13          	srl	t5,a7,0x10
8000480c:	01d8feb3          	and	t4,a7,t4
80004810:	410787b3          	sub	a5,a5,a6
80004814:	0103d813          	srl	a6,t2,0x10
80004818:	02ee8fb3          	mul	t6,t4,a4
8000481c:	03d804b3          	mul	s1,a6,t4
80004820:	010fd693          	srl	a3,t6,0x10
80004824:	02ef0733          	mul	a4,t5,a4
80004828:	9726                	add	a4,a4,s1
8000482a:	96ba                	add	a3,a3,a4
8000482c:	03e80833          	mul	a6,a6,t5
80004830:	0096f363          	bgeu	a3,s1,80004836 <__divdf3+0x262>
80004834:	9822                	add	a6,a6,s0
80004836:	0106d713          	srl	a4,a3,0x10
8000483a:	9742                	add	a4,a4,a6
8000483c:	6841                	lui	a6,0x10
8000483e:	187d                	add	a6,a6,-1 # ffff <HEAP_SIZE+0xbfff>
80004840:	0106f6b3          	and	a3,a3,a6
80004844:	06c2                	sll	a3,a3,0x10
80004846:	010fffb3          	and	t6,t6,a6
8000484a:	96fe                	add	a3,a3,t6
8000484c:	00e7e763          	bltu	a5,a4,8000485a <__divdf3+0x286>
80004850:	881e                	mv	a6,t2
80004852:	04e79163          	bne	a5,a4,80004894 <__divdf3+0x2c0>
80004856:	02d2ff63          	bgeu	t0,a3,80004894 <__divdf3+0x2c0>
8000485a:	01128fb3          	add	t6,t0,a7
8000485e:	005fb433          	sltu	s0,t6,t0
80004862:	00b404b3          	add	s1,s0,a1
80004866:	97a6                	add	a5,a5,s1
80004868:	fff38813          	add	a6,t2,-1
8000486c:	82fe                	mv	t0,t6
8000486e:	00f5e563          	bltu	a1,a5,80004878 <__divdf3+0x2a4>
80004872:	02f59163          	bne	a1,a5,80004894 <__divdf3+0x2c0>
80004876:	ec19                	bnez	s0,80004894 <__divdf3+0x2c0>
80004878:	00e7e663          	bltu	a5,a4,80004884 <__divdf3+0x2b0>
8000487c:	00f71c63          	bne	a4,a5,80004894 <__divdf3+0x2c0>
80004880:	00dffa63          	bgeu	t6,a3,80004894 <__divdf3+0x2c0>
80004884:	9fc6                	add	t6,t6,a7
80004886:	82fe                	mv	t0,t6
80004888:	011fbfb3          	sltu	t6,t6,a7
8000488c:	9fae                	add	t6,t6,a1
8000488e:	ffe38813          	add	a6,t2,-2
80004892:	97fe                	add	a5,a5,t6
80004894:	40d286b3          	sub	a3,t0,a3
80004898:	8f99                	sub	a5,a5,a4
8000489a:	00d2b2b3          	sltu	t0,t0,a3
8000489e:	405787b3          	sub	a5,a5,t0
800048a2:	5ffd                	li	t6,-1
800048a4:	0ef58863          	beq	a1,a5,80004994 <__divdf3+0x3c0>
800048a8:	0267d2b3          	divu	t0,a5,t1
800048ac:	0106d713          	srl	a4,a3,0x10
800048b0:	0267f7b3          	remu	a5,a5,t1
800048b4:	025e0fb3          	mul	t6,t3,t0
800048b8:	07c2                	sll	a5,a5,0x10
800048ba:	8fd9                	or	a5,a5,a4
800048bc:	8716                	mv	a4,t0
800048be:	01f7fc63          	bgeu	a5,t6,800048d6 <__divdf3+0x302>
800048c2:	97ae                	add	a5,a5,a1
800048c4:	fff28713          	add	a4,t0,-1
800048c8:	00b7e763          	bltu	a5,a1,800048d6 <__divdf3+0x302>
800048cc:	01f7f563          	bgeu	a5,t6,800048d6 <__divdf3+0x302>
800048d0:	ffe28713          	add	a4,t0,-2
800048d4:	97ae                	add	a5,a5,a1
800048d6:	41f787b3          	sub	a5,a5,t6
800048da:	0267dfb3          	divu	t6,a5,t1
800048de:	0806c6b3          	zext.h	a3,a3
800048e2:	0267f7b3          	remu	a5,a5,t1
800048e6:	837e                	mv	t1,t6
800048e8:	03fe0e33          	mul	t3,t3,t6
800048ec:	07c2                	sll	a5,a5,0x10
800048ee:	8fd5                	or	a5,a5,a3
800048f0:	01c7fc63          	bgeu	a5,t3,80004908 <__divdf3+0x334>
800048f4:	97ae                	add	a5,a5,a1
800048f6:	ffff8313          	add	t1,t6,-1
800048fa:	00b7e763          	bltu	a5,a1,80004908 <__divdf3+0x334>
800048fe:	01c7f563          	bgeu	a5,t3,80004908 <__divdf3+0x334>
80004902:	ffef8313          	add	t1,t6,-2
80004906:	97ae                	add	a5,a5,a1
80004908:	01071693          	sll	a3,a4,0x10
8000490c:	0066e6b3          	or	a3,a3,t1
80004910:	41c787b3          	sub	a5,a5,t3
80004914:	0106de13          	srl	t3,a3,0x10
80004918:	0806c733          	zext.h	a4,a3
8000491c:	03d70fb3          	mul	t6,a4,t4
80004920:	03de0eb3          	mul	t4,t3,t4
80004924:	03cf0e33          	mul	t3,t5,t3
80004928:	02ef0f33          	mul	t5,t5,a4
8000492c:	010fd713          	srl	a4,t6,0x10
80004930:	9f76                	add	t5,t5,t4
80004932:	977a                	add	a4,a4,t5
80004934:	01d77463          	bgeu	a4,t4,8000493c <__divdf3+0x368>
80004938:	6341                	lui	t1,0x10
8000493a:	9e1a                	add	t3,t3,t1
8000493c:	01075313          	srl	t1,a4,0x10
80004940:	9372                	add	t1,t1,t3
80004942:	6e41                	lui	t3,0x10
80004944:	1e7d                	add	t3,t3,-1 # ffff <HEAP_SIZE+0xbfff>
80004946:	01c77733          	and	a4,a4,t3
8000494a:	0742                	sll	a4,a4,0x10
8000494c:	01cfffb3          	and	t6,t6,t3
80004950:	977e                	add	a4,a4,t6
80004952:	0067e663          	bltu	a5,t1,8000495e <__divdf3+0x38a>
80004956:	18679263          	bne	a5,t1,80004ada <__divdf3+0x506>
8000495a:	8fb6                	mv	t6,a3
8000495c:	cf05                	beqz	a4,80004994 <__divdf3+0x3c0>
8000495e:	97ae                	add	a5,a5,a1
80004960:	fff68f93          	add	t6,a3,-1
80004964:	8e3e                	mv	t3,a5
80004966:	02b7e163          	bltu	a5,a1,80004988 <__divdf3+0x3b4>
8000496a:	0067e663          	bltu	a5,t1,80004976 <__divdf3+0x3a2>
8000496e:	16679563          	bne	a5,t1,80004ad8 <__divdf3+0x504>
80004972:	00e8fd63          	bgeu	a7,a4,8000498c <__divdf3+0x3b8>
80004976:	ffe68f93          	add	t6,a3,-2
8000497a:	00189693          	sll	a3,a7,0x1
8000497e:	0116be33          	sltu	t3,a3,a7
80004982:	9e2e                	add	t3,t3,a1
80004984:	9e3e                	add	t3,t3,a5
80004986:	88b6                	mv	a7,a3
80004988:	006e1463          	bne	t3,t1,80004990 <__divdf3+0x3bc>
8000498c:	01170463          	beq	a4,a7,80004994 <__divdf3+0x3c0>
80004990:	001fef93          	or	t6,t6,1
80004994:	3ff50693          	add	a3,a0,1023
80004998:	08d05e63          	blez	a3,80004a34 <__divdf3+0x460>
8000499c:	007ff793          	and	a5,t6,7
800049a0:	cf81                	beqz	a5,800049b8 <__divdf3+0x3e4>
800049a2:	00fff793          	and	a5,t6,15
800049a6:	4711                	li	a4,4
800049a8:	00e78863          	beq	a5,a4,800049b8 <__divdf3+0x3e4>
800049ac:	004f8793          	add	a5,t6,4
800049b0:	01f7b733          	sltu	a4,a5,t6
800049b4:	983a                	add	a6,a6,a4
800049b6:	8fbe                	mv	t6,a5
800049b8:	00781793          	sll	a5,a6,0x7
800049bc:	0007d663          	bgez	a5,800049c8 <__divdf3+0x3f4>
800049c0:	40050693          	add	a3,a0,1024
800049c4:	49881813          	bclr	a6,a6,0x18
800049c8:	7fe00793          	li	a5,2046
800049cc:	04d7c763          	blt	a5,a3,80004a1a <__divdf3+0x446>
800049d0:	003fdf93          	srl	t6,t6,0x3
800049d4:	01d81713          	sll	a4,a6,0x1d
800049d8:	01f76733          	or	a4,a4,t6
800049dc:	00385793          	srl	a5,a6,0x3
800049e0:	07b2                	sll	a5,a5,0xc
800049e2:	4432                	lw	s0,12(sp)
800049e4:	83b1                	srl	a5,a5,0xc
800049e6:	06d2                	sll	a3,a3,0x14
800049e8:	8edd                	or	a3,a3,a5
800049ea:	067e                	sll	a2,a2,0x1f
800049ec:	00c6e7b3          	or	a5,a3,a2
800049f0:	44a2                	lw	s1,8(sp)
800049f2:	853a                	mv	a0,a4
800049f4:	85be                	mv	a1,a5
800049f6:	0141                	add	sp,sp,16
800049f8:	8082                	ret
800049fa:	157d                	add	a0,a0,-1
800049fc:	4281                	li	t0,0
800049fe:	b341                	j	8000477e <__divdf3+0x1aa>
80004a00:	862e                	mv	a2,a1
80004a02:	8876                	mv	a6,t4
80004a04:	8fbe                	mv	t6,a5
80004a06:	871a                	mv	a4,t1
80004a08:	478d                	li	a5,3
80004a0a:	0af70963          	beq	a4,a5,80004abc <__divdf3+0x4e8>
80004a0e:	4785                	li	a5,1
80004a10:	0af70d63          	beq	a4,a5,80004aca <__divdf3+0x4f6>
80004a14:	4789                	li	a5,2
80004a16:	f6f71fe3          	bne	a4,a5,80004994 <__divdf3+0x3c0>
80004a1a:	4781                	li	a5,0
80004a1c:	4701                	li	a4,0
80004a1e:	7ff00693          	li	a3,2047
80004a22:	bf7d                	j	800049e0 <__divdf3+0x40c>
80004a24:	8636                	mv	a2,a3
80004a26:	b7cd                	j	80004a08 <__divdf3+0x434>
80004a28:	00080837          	lui	a6,0x80
80004a2c:	4f81                	li	t6,0
80004a2e:	4601                	li	a2,0
80004a30:	470d                	li	a4,3
80004a32:	bfd9                	j	80004a08 <__divdf3+0x434>
80004a34:	4785                	li	a5,1
80004a36:	8f95                	sub	a5,a5,a3
80004a38:	03800713          	li	a4,56
80004a3c:	08f74763          	blt	a4,a5,80004aca <__divdf3+0x4f6>
80004a40:	477d                	li	a4,31
80004a42:	04f74963          	blt	a4,a5,80004a94 <__divdf3+0x4c0>
80004a46:	41e50513          	add	a0,a0,1054
80004a4a:	00a81733          	sll	a4,a6,a0
80004a4e:	00ffd6b3          	srl	a3,t6,a5
80004a52:	00af9533          	sll	a0,t6,a0
80004a56:	8f55                	or	a4,a4,a3
80004a58:	00a03533          	snez	a0,a0
80004a5c:	8f49                	or	a4,a4,a0
80004a5e:	00f857b3          	srl	a5,a6,a5
80004a62:	00777693          	and	a3,a4,7
80004a66:	ce81                	beqz	a3,80004a7e <__divdf3+0x4aa>
80004a68:	00f77693          	and	a3,a4,15
80004a6c:	4591                	li	a1,4
80004a6e:	00b68863          	beq	a3,a1,80004a7e <__divdf3+0x4aa>
80004a72:	00470693          	add	a3,a4,4
80004a76:	00e6b5b3          	sltu	a1,a3,a4
80004a7a:	97ae                	add	a5,a5,a1
80004a7c:	8736                	mv	a4,a3
80004a7e:	00879693          	sll	a3,a5,0x8
80004a82:	0406c763          	bltz	a3,80004ad0 <__divdf3+0x4fc>
80004a86:	01d79693          	sll	a3,a5,0x1d
80004a8a:	830d                	srl	a4,a4,0x3
80004a8c:	8f55                	or	a4,a4,a3
80004a8e:	838d                	srl	a5,a5,0x3
80004a90:	4681                	li	a3,0
80004a92:	b7b9                	j	800049e0 <__divdf3+0x40c>
80004a94:	5705                	li	a4,-31
80004a96:	8f15                	sub	a4,a4,a3
80004a98:	02000593          	li	a1,32
80004a9c:	00e85733          	srl	a4,a6,a4
80004aa0:	4681                	li	a3,0
80004aa2:	00b78663          	beq	a5,a1,80004aae <__divdf3+0x4da>
80004aa6:	43e50693          	add	a3,a0,1086
80004aaa:	00d816b3          	sll	a3,a6,a3
80004aae:	01f6e6b3          	or	a3,a3,t6
80004ab2:	00d036b3          	snez	a3,a3
80004ab6:	8f55                	or	a4,a4,a3
80004ab8:	4781                	li	a5,0
80004aba:	b765                	j	80004a62 <__divdf3+0x48e>
80004abc:	000807b7          	lui	a5,0x80
80004ac0:	4701                	li	a4,0
80004ac2:	7ff00693          	li	a3,2047
80004ac6:	4601                	li	a2,0
80004ac8:	bf21                	j	800049e0 <__divdf3+0x40c>
80004aca:	4781                	li	a5,0
80004acc:	4701                	li	a4,0
80004ace:	b7c9                	j	80004a90 <__divdf3+0x4bc>
80004ad0:	4781                	li	a5,0
80004ad2:	4701                	li	a4,0
80004ad4:	4685                	li	a3,1
80004ad6:	b729                	j	800049e0 <__divdf3+0x40c>
80004ad8:	86fe                	mv	a3,t6
80004ada:	8fb6                	mv	t6,a3
80004adc:	bd55                	j	80004990 <__divdf3+0x3bc>

80004ade <__gedf2>:
80004ade:	0146d793          	srl	a5,a3,0x14
80004ae2:	0145d893          	srl	a7,a1,0x14
80004ae6:	00100737          	lui	a4,0x100
80004aea:	177d                	add	a4,a4,-1 # fffff <__fw_size__+0xe276f>
80004aec:	882a                	mv	a6,a0
80004aee:	8e2a                	mv	t3,a0
80004af0:	7ff8f893          	and	a7,a7,2047
80004af4:	7ff7f513          	and	a0,a5,2047
80004af8:	7ff00793          	li	a5,2047
80004afc:	00b77333          	and	t1,a4,a1
80004b00:	8eb2                	mv	t4,a2
80004b02:	8f75                	and	a4,a4,a3
80004b04:	81fd                	srl	a1,a1,0x1f
80004b06:	82fd                	srl	a3,a3,0x1f
80004b08:	00f89563          	bne	a7,a5,80004b12 <__gedf2+0x34>
80004b0c:	010367b3          	or	a5,t1,a6
80004b10:	eba9                	bnez	a5,80004b62 <__gedf2+0x84>
80004b12:	7ff00793          	li	a5,2047
80004b16:	00f51563          	bne	a0,a5,80004b20 <__gedf2+0x42>
80004b1a:	00c767b3          	or	a5,a4,a2
80004b1e:	e3b1                	bnez	a5,80004b62 <__gedf2+0x84>
80004b20:	4781                	li	a5,0
80004b22:	00089663          	bnez	a7,80004b2e <__gedf2+0x50>
80004b26:	01036833          	or	a6,t1,a6
80004b2a:	00183793          	seqz	a5,a6
80004b2e:	ed05                	bnez	a0,80004b66 <__gedf2+0x88>
80004b30:	8e59                	or	a2,a2,a4
80004b32:	c791                	beqz	a5,80004b3e <__gedf2+0x60>
80004b34:	ca01                	beqz	a2,80004b44 <__gedf2+0x66>
80004b36:	4505                	li	a0,1
80004b38:	e691                	bnez	a3,80004b44 <__gedf2+0x66>
80004b3a:	557d                	li	a0,-1
80004b3c:	8082                	ret
80004b3e:	e60d                	bnez	a2,80004b68 <__gedf2+0x8a>
80004b40:	557d                	li	a0,-1
80004b42:	c98d                	beqz	a1,80004b74 <__gedf2+0x96>
80004b44:	8082                	ret
80004b46:	fea8c8e3          	blt	a7,a0,80004b36 <__gedf2+0x58>
80004b4a:	fe676be3          	bltu	a4,t1,80004b40 <__gedf2+0x62>
80004b4e:	00e31763          	bne	t1,a4,80004b5c <__gedf2+0x7e>
80004b52:	ffcee7e3          	bltu	t4,t3,80004b40 <__gedf2+0x62>
80004b56:	4501                	li	a0,0
80004b58:	ffde76e3          	bgeu	t3,t4,80004b44 <__gedf2+0x66>
80004b5c:	4505                	li	a0,1
80004b5e:	f1fd                	bnez	a1,80004b44 <__gedf2+0x66>
80004b60:	bfe9                	j	80004b3a <__gedf2+0x5c>
80004b62:	5579                	li	a0,-2
80004b64:	8082                	ret
80004b66:	fbe1                	bnez	a5,80004b36 <__gedf2+0x58>
80004b68:	fcb69ce3          	bne	a3,a1,80004b40 <__gedf2+0x62>
80004b6c:	fd155de3          	bge	a0,a7,80004b46 <__gedf2+0x68>
80004b70:	557d                	li	a0,-1
80004b72:	fae9                	bnez	a3,80004b44 <__gedf2+0x66>
80004b74:	4505                	li	a0,1
80004b76:	8082                	ret

80004b78 <__ledf2>:
80004b78:	0146d793          	srl	a5,a3,0x14
80004b7c:	0145d893          	srl	a7,a1,0x14
80004b80:	00100737          	lui	a4,0x100
80004b84:	177d                	add	a4,a4,-1 # fffff <__fw_size__+0xe276f>
80004b86:	882a                	mv	a6,a0
80004b88:	8e2a                	mv	t3,a0
80004b8a:	7ff8f893          	and	a7,a7,2047
80004b8e:	7ff7f513          	and	a0,a5,2047
80004b92:	7ff00793          	li	a5,2047
80004b96:	00b77333          	and	t1,a4,a1
80004b9a:	8eb2                	mv	t4,a2
80004b9c:	8f75                	and	a4,a4,a3
80004b9e:	81fd                	srl	a1,a1,0x1f
80004ba0:	82fd                	srl	a3,a3,0x1f
80004ba2:	00f89563          	bne	a7,a5,80004bac <__ledf2+0x34>
80004ba6:	010367b3          	or	a5,t1,a6
80004baa:	eba9                	bnez	a5,80004bfc <__ledf2+0x84>
80004bac:	7ff00793          	li	a5,2047
80004bb0:	00f51563          	bne	a0,a5,80004bba <__ledf2+0x42>
80004bb4:	00c767b3          	or	a5,a4,a2
80004bb8:	e3b1                	bnez	a5,80004bfc <__ledf2+0x84>
80004bba:	4781                	li	a5,0
80004bbc:	00089663          	bnez	a7,80004bc8 <__ledf2+0x50>
80004bc0:	01036833          	or	a6,t1,a6
80004bc4:	00183793          	seqz	a5,a6
80004bc8:	ed05                	bnez	a0,80004c00 <__ledf2+0x88>
80004bca:	8e59                	or	a2,a2,a4
80004bcc:	c791                	beqz	a5,80004bd8 <__ledf2+0x60>
80004bce:	ca01                	beqz	a2,80004bde <__ledf2+0x66>
80004bd0:	4505                	li	a0,1
80004bd2:	e691                	bnez	a3,80004bde <__ledf2+0x66>
80004bd4:	557d                	li	a0,-1
80004bd6:	8082                	ret
80004bd8:	e60d                	bnez	a2,80004c02 <__ledf2+0x8a>
80004bda:	557d                	li	a0,-1
80004bdc:	c98d                	beqz	a1,80004c0e <__ledf2+0x96>
80004bde:	8082                	ret
80004be0:	fea8c8e3          	blt	a7,a0,80004bd0 <__ledf2+0x58>
80004be4:	fe676be3          	bltu	a4,t1,80004bda <__ledf2+0x62>
80004be8:	00e31763          	bne	t1,a4,80004bf6 <__ledf2+0x7e>
80004bec:	ffcee7e3          	bltu	t4,t3,80004bda <__ledf2+0x62>
80004bf0:	4501                	li	a0,0
80004bf2:	ffde76e3          	bgeu	t3,t4,80004bde <__ledf2+0x66>
80004bf6:	4505                	li	a0,1
80004bf8:	f1fd                	bnez	a1,80004bde <__ledf2+0x66>
80004bfa:	bfe9                	j	80004bd4 <__ledf2+0x5c>
80004bfc:	4509                	li	a0,2
80004bfe:	8082                	ret
80004c00:	fbe1                	bnez	a5,80004bd0 <__ledf2+0x58>
80004c02:	fcb69ce3          	bne	a3,a1,80004bda <__ledf2+0x62>
80004c06:	fd155de3          	bge	a0,a7,80004be0 <__ledf2+0x68>
80004c0a:	557d                	li	a0,-1
80004c0c:	fae9                	bnez	a3,80004bde <__ledf2+0x66>
80004c0e:	4505                	li	a0,1
80004c10:	8082                	ret

80004c12 <__muldf3>:
80004c12:	1141                	add	sp,sp,-16
80004c14:	0145de13          	srl	t3,a1,0x14
80004c18:	00c59893          	sll	a7,a1,0xc
80004c1c:	c622                	sw	s0,12(sp)
80004c1e:	c426                	sw	s1,8(sp)
80004c20:	c24a                	sw	s2,4(sp)
80004c22:	c04e                	sw	s3,0(sp)
80004c24:	7ffe7e13          	and	t3,t3,2047
80004c28:	872a                	mv	a4,a0
80004c2a:	00c8d893          	srl	a7,a7,0xc
80004c2e:	01f5d513          	srl	a0,a1,0x1f
80004c32:	1c0e0c63          	beqz	t3,80004e0a <__muldf3+0x1f8>
80004c36:	7ff00793          	li	a5,2047
80004c3a:	22fe0363          	beq	t3,a5,80004e60 <__muldf3+0x24e>
80004c3e:	01d75793          	srl	a5,a4,0x1d
80004c42:	088e                	sll	a7,a7,0x3
80004c44:	0117e8b3          	or	a7,a5,a7
80004c48:	00371813          	sll	a6,a4,0x3
80004c4c:	c01e0e13          	add	t3,t3,-1023
80004c50:	29789893          	bset	a7,a7,0x17
80004c54:	4f01                	li	t5,0
80004c56:	0146d313          	srl	t1,a3,0x14
80004c5a:	00c69713          	sll	a4,a3,0xc
80004c5e:	7ff37313          	and	t1,t1,2047
80004c62:	8331                	srl	a4,a4,0xc
80004c64:	82fd                	srl	a3,a3,0x1f
80004c66:	20030f63          	beqz	t1,80004e84 <__muldf3+0x272>
80004c6a:	7ff00793          	li	a5,2047
80004c6e:	26f30363          	beq	t1,a5,80004ed4 <__muldf3+0x2c2>
80004c72:	01d65793          	srl	a5,a2,0x1d
80004c76:	070e                	sll	a4,a4,0x3
80004c78:	8f5d                	or	a4,a4,a5
80004c7a:	00361793          	sll	a5,a2,0x3
80004c7e:	c0130613          	add	a2,t1,-1023 # fc01 <HEAP_SIZE+0xbc01>
80004c82:	29771713          	bset	a4,a4,0x17
80004c86:	4581                	li	a1,0
80004c88:	00ce0eb3          	add	t4,t3,a2
80004c8c:	002f1613          	sll	a2,t5,0x2
80004c90:	8e4d                	or	a2,a2,a1
80004c92:	4e29                	li	t3,10
80004c94:	001e8313          	add	t1,t4,1
80004c98:	2ece4a63          	blt	t3,a2,80004f8c <__muldf3+0x37a>
80004c9c:	4e09                	li	t3,2
80004c9e:	8d35                	xor	a0,a0,a3
80004ca0:	24ce4b63          	blt	t3,a2,80004ef6 <__muldf3+0x2e4>
80004ca4:	167d                	add	a2,a2,-1 # 7fefffff <__noncacheable_end__+0x7ecbffff>
80004ca6:	4685                	li	a3,1
80004ca8:	26c6f663          	bgeu	a3,a2,80004f14 <__muldf3+0x302>
80004cac:	63c1                	lui	t2,0x10
80004cae:	fff38f93          	add	t6,t2,-1 # ffff <HEAP_SIZE+0xbfff>
80004cb2:	0107d293          	srl	t0,a5,0x10
80004cb6:	01f87f33          	and	t5,a6,t6
80004cba:	01085e13          	srl	t3,a6,0x10
80004cbe:	01f7f4b3          	and	s1,a5,t6
80004cc2:	029f07b3          	mul	a5,t5,s1
80004cc6:	029e0833          	mul	a6,t3,s1
80004cca:	0107d593          	srl	a1,a5,0x10
80004cce:	03e286b3          	mul	a3,t0,t5
80004cd2:	96c2                	add	a3,a3,a6
80004cd4:	95b6                	add	a1,a1,a3
80004cd6:	025e0633          	mul	a2,t3,t0
80004cda:	0105f363          	bgeu	a1,a6,80004ce0 <__muldf3+0xce>
80004cde:	961e                	add	a2,a2,t2
80004ce0:	0105d393          	srl	t2,a1,0x10
80004ce4:	01f5f5b3          	and	a1,a1,t6
80004ce8:	01f7f7b3          	and	a5,a5,t6
80004cec:	01075693          	srl	a3,a4,0x10
80004cf0:	01f77fb3          	and	t6,a4,t6
80004cf4:	05c2                	sll	a1,a1,0x10
80004cf6:	95be                	add	a1,a1,a5
80004cf8:	03ff0833          	mul	a6,t5,t6
80004cfc:	03fe07b3          	mul	a5,t3,t6
80004d00:	01085713          	srl	a4,a6,0x10
80004d04:	03e68f33          	mul	t5,a3,t5
80004d08:	9f3e                	add	t5,t5,a5
80004d0a:	977a                	add	a4,a4,t5
80004d0c:	02de0e33          	mul	t3,t3,a3
80004d10:	00f77463          	bgeu	a4,a5,80004d18 <__muldf3+0x106>
80004d14:	67c1                	lui	a5,0x10
80004d16:	9e3e                	add	t3,t3,a5
80004d18:	69c1                	lui	s3,0x10
80004d1a:	fff98413          	add	s0,s3,-1 # ffff <HEAP_SIZE+0xbfff>
80004d1e:	008777b3          	and	a5,a4,s0
80004d22:	01075f13          	srl	t5,a4,0x10
80004d26:	00887833          	and	a6,a6,s0
80004d2a:	9f72                	add	t5,t5,t3
80004d2c:	0088f433          	and	s0,a7,s0
80004d30:	0108de13          	srl	t3,a7,0x10
80004d34:	07c2                	sll	a5,a5,0x10
80004d36:	02848933          	mul	s2,s1,s0
80004d3a:	97c2                	add	a5,a5,a6
80004d3c:	93be                	add	t2,t2,a5
80004d3e:	029e08b3          	mul	a7,t3,s1
80004d42:	01095713          	srl	a4,s2,0x10
80004d46:	02828833          	mul	a6,t0,s0
80004d4a:	9846                	add	a6,a6,a7
80004d4c:	9742                	add	a4,a4,a6
80004d4e:	03c284b3          	mul	s1,t0,t3
80004d52:	01177363          	bgeu	a4,a7,80004d58 <__muldf3+0x146>
80004d56:	94ce                	add	s1,s1,s3
80004d58:	01075893          	srl	a7,a4,0x10
80004d5c:	69c1                	lui	s3,0x10
80004d5e:	98a6                	add	a7,a7,s1
80004d60:	fff98493          	add	s1,s3,-1 # ffff <HEAP_SIZE+0xbfff>
80004d64:	8f65                	and	a4,a4,s1
80004d66:	0742                	sll	a4,a4,0x10
80004d68:	00997933          	and	s2,s2,s1
80004d6c:	028f82b3          	mul	t0,t6,s0
80004d70:	01270833          	add	a6,a4,s2
80004d74:	03fe0fb3          	mul	t6,t3,t6
80004d78:	0102d713          	srl	a4,t0,0x10
80004d7c:	03c68e33          	mul	t3,a3,t3
80004d80:	028686b3          	mul	a3,a3,s0
80004d84:	96fe                	add	a3,a3,t6
80004d86:	96ba                	add	a3,a3,a4
80004d88:	01f6f363          	bgeu	a3,t6,80004d8e <__muldf3+0x17c>
80004d8c:	9e4e                	add	t3,t3,s3
80004d8e:	0096f733          	and	a4,a3,s1
80004d92:	0742                	sll	a4,a4,0x10
80004d94:	0092f2b3          	and	t0,t0,s1
80004d98:	961e                	add	a2,a2,t2
80004d9a:	9716                	add	a4,a4,t0
80004d9c:	9f3a                	add	t5,t5,a4
80004d9e:	00f637b3          	sltu	a5,a2,a5
80004da2:	97fa                	add	a5,a5,t5
80004da4:	9832                	add	a6,a6,a2
80004da6:	98be                	add	a7,a7,a5
80004da8:	00ef3733          	sltu	a4,t5,a4
80004dac:	00c83633          	sltu	a2,a6,a2
80004db0:	01e7bf33          	sltu	t5,a5,t5
80004db4:	9646                	add	a2,a2,a7
80004db6:	82c1                	srl	a3,a3,0x10
80004db8:	01e76733          	or	a4,a4,t5
80004dbc:	9736                	add	a4,a4,a3
80004dbe:	00f8b6b3          	sltu	a3,a7,a5
80004dc2:	011638b3          	sltu	a7,a2,a7
80004dc6:	00981793          	sll	a5,a6,0x9
80004dca:	0116e6b3          	or	a3,a3,a7
80004dce:	96ba                	add	a3,a3,a4
80004dd0:	8fcd                	or	a5,a5,a1
80004dd2:	96f2                	add	a3,a3,t3
80004dd4:	00f037b3          	snez	a5,a5
80004dd8:	01785813          	srl	a6,a6,0x17
80004ddc:	06a6                	sll	a3,a3,0x9
80004dde:	01765713          	srl	a4,a2,0x17
80004de2:	0107e7b3          	or	a5,a5,a6
80004de6:	0626                	sll	a2,a2,0x9
80004de8:	8fd1                	or	a5,a5,a2
80004dea:	00769613          	sll	a2,a3,0x7
80004dee:	8f55                	or	a4,a4,a3
80004df0:	00065b63          	bgez	a2,80004e06 <__muldf3+0x1f4>
80004df4:	0017d693          	srl	a3,a5,0x1
80004df8:	8b85                	and	a5,a5,1
80004dfa:	8edd                	or	a3,a3,a5
80004dfc:	01f71793          	sll	a5,a4,0x1f
80004e00:	8fd5                	or	a5,a5,a3
80004e02:	8305                	srl	a4,a4,0x1
80004e04:	8e9a                	mv	t4,t1
80004e06:	8376                	mv	t1,t4
80004e08:	aa39                	j	80004f26 <__muldf3+0x314>
80004e0a:	00e8e833          	or	a6,a7,a4
80004e0e:	06080263          	beqz	a6,80004e72 <__muldf3+0x260>
80004e12:	02088a63          	beqz	a7,80004e46 <__muldf3+0x234>
80004e16:	60089593          	clz	a1,a7
80004e1a:	ff558813          	add	a6,a1,-11
80004e1e:	47f5                	li	a5,29
80004e20:	ff858313          	add	t1,a1,-8
80004e24:	410787b3          	sub	a5,a5,a6
80004e28:	006898b3          	sll	a7,a7,t1
80004e2c:	00f757b3          	srl	a5,a4,a5
80004e30:	0117e7b3          	or	a5,a5,a7
80004e34:	006718b3          	sll	a7,a4,t1
80004e38:	c0d00e13          	li	t3,-1011
80004e3c:	8846                	mv	a6,a7
80004e3e:	40be0e33          	sub	t3,t3,a1
80004e42:	88be                	mv	a7,a5
80004e44:	bd01                	j	80004c54 <__muldf3+0x42>
80004e46:	60071793          	clz	a5,a4
80004e4a:	4371                	li	t1,28
80004e4c:	01578813          	add	a6,a5,21 # 10015 <_noncacheable_size+0x15>
80004e50:	02078593          	add	a1,a5,32
80004e54:	fd0355e3          	bge	t1,a6,80004e1e <__muldf3+0x20c>
80004e58:	17e1                	add	a5,a5,-8
80004e5a:	00f717b3          	sll	a5,a4,a5
80004e5e:	bfe9                	j	80004e38 <__muldf3+0x226>
80004e60:	00e8e833          	or	a6,a7,a4
80004e64:	00081b63          	bnez	a6,80004e7a <__muldf3+0x268>
80004e68:	4881                	li	a7,0
80004e6a:	7ff00e13          	li	t3,2047
80004e6e:	4f09                	li	t5,2
80004e70:	b3dd                	j	80004c56 <__muldf3+0x44>
80004e72:	4881                	li	a7,0
80004e74:	4e01                	li	t3,0
80004e76:	4f05                	li	t5,1
80004e78:	bbf9                	j	80004c56 <__muldf3+0x44>
80004e7a:	883a                	mv	a6,a4
80004e7c:	7ff00e13          	li	t3,2047
80004e80:	4f0d                	li	t5,3
80004e82:	bbd1                	j	80004c56 <__muldf3+0x44>
80004e84:	00c767b3          	or	a5,a4,a2
80004e88:	cfb1                	beqz	a5,80004ee4 <__muldf3+0x2d2>
80004e8a:	cb05                	beqz	a4,80004eba <__muldf3+0x2a8>
80004e8c:	60071593          	clz	a1,a4
80004e90:	ff558e93          	add	t4,a1,-11
80004e94:	4375                	li	t1,29
80004e96:	ff858793          	add	a5,a1,-8
80004e9a:	41d30333          	sub	t1,t1,t4
80004e9e:	00f71733          	sll	a4,a4,a5
80004ea2:	00665333          	srl	t1,a2,t1
80004ea6:	00e36333          	or	t1,t1,a4
80004eaa:	00f61733          	sll	a4,a2,a5
80004eae:	c0d00613          	li	a2,-1011
80004eb2:	87ba                	mv	a5,a4
80004eb4:	8e0d                	sub	a2,a2,a1
80004eb6:	871a                	mv	a4,t1
80004eb8:	b3f9                	j	80004c86 <__muldf3+0x74>
80004eba:	60061793          	clz	a5,a2
80004ebe:	4371                	li	t1,28
80004ec0:	01578e93          	add	t4,a5,21
80004ec4:	02078593          	add	a1,a5,32
80004ec8:	fdd356e3          	bge	t1,t4,80004e94 <__muldf3+0x282>
80004ecc:	17e1                	add	a5,a5,-8
80004ece:	00f61333          	sll	t1,a2,a5
80004ed2:	bff1                	j	80004eae <__muldf3+0x29c>
80004ed4:	00c767b3          	or	a5,a4,a2
80004ed8:	eb91                	bnez	a5,80004eec <__muldf3+0x2da>
80004eda:	4701                	li	a4,0
80004edc:	7ff00613          	li	a2,2047
80004ee0:	4589                	li	a1,2
80004ee2:	b35d                	j	80004c88 <__muldf3+0x76>
80004ee4:	4701                	li	a4,0
80004ee6:	4601                	li	a2,0
80004ee8:	4585                	li	a1,1
80004eea:	bb79                	j	80004c88 <__muldf3+0x76>
80004eec:	87b2                	mv	a5,a2
80004eee:	458d                	li	a1,3
80004ef0:	7ff00613          	li	a2,2047
80004ef4:	bb51                	j	80004c88 <__muldf3+0x76>
80004ef6:	28c01633          	bset	a2,zero,a2
80004efa:	53067e13          	and	t3,a2,1328
80004efe:	080e1d63          	bnez	t3,80004f98 <__muldf3+0x386>
80004f02:	24067f13          	and	t5,a2,576
80004f06:	120f1863          	bnez	t5,80005036 <__muldf3+0x424>
80004f0a:	08867613          	and	a2,a2,136
80004f0e:	d8060fe3          	beqz	a2,80004cac <__muldf3+0x9a>
80004f12:	8536                	mv	a0,a3
80004f14:	4689                	li	a3,2
80004f16:	10d58b63          	beq	a1,a3,8000502c <__muldf3+0x41a>
80004f1a:	468d                	li	a3,3
80004f1c:	12d58363          	beq	a1,a3,80005042 <__muldf3+0x430>
80004f20:	4685                	li	a3,1
80004f22:	12d58463          	beq	a1,a3,8000504a <__muldf3+0x438>
80004f26:	3ff30593          	add	a1,t1,1023
80004f2a:	06b05b63          	blez	a1,80004fa0 <__muldf3+0x38e>
80004f2e:	0077f693          	and	a3,a5,7
80004f32:	ce81                	beqz	a3,80004f4a <__muldf3+0x338>
80004f34:	00f7f693          	and	a3,a5,15
80004f38:	4611                	li	a2,4
80004f3a:	00c68863          	beq	a3,a2,80004f4a <__muldf3+0x338>
80004f3e:	00478693          	add	a3,a5,4
80004f42:	00f6b633          	sltu	a2,a3,a5
80004f46:	9732                	add	a4,a4,a2
80004f48:	87b6                	mv	a5,a3
80004f4a:	00771693          	sll	a3,a4,0x7
80004f4e:	0006d663          	bgez	a3,80004f5a <__muldf3+0x348>
80004f52:	40030593          	add	a1,t1,1024
80004f56:	49871713          	bclr	a4,a4,0x18
80004f5a:	7fe00693          	li	a3,2046
80004f5e:	0cb6c763          	blt	a3,a1,8000502c <__muldf3+0x41a>
80004f62:	01d71e13          	sll	t3,a4,0x1d
80004f66:	838d                	srl	a5,a5,0x3
80004f68:	00fe6e33          	or	t3,t3,a5
80004f6c:	830d                	srl	a4,a4,0x3
80004f6e:	0732                	sll	a4,a4,0xc
80004f70:	4432                	lw	s0,12(sp)
80004f72:	05d2                	sll	a1,a1,0x14
80004f74:	8331                	srl	a4,a4,0xc
80004f76:	8dd9                	or	a1,a1,a4
80004f78:	057e                	sll	a0,a0,0x1f
80004f7a:	00a5e7b3          	or	a5,a1,a0
80004f7e:	44a2                	lw	s1,8(sp)
80004f80:	4912                	lw	s2,4(sp)
80004f82:	4982                	lw	s3,0(sp)
80004f84:	8572                	mv	a0,t3
80004f86:	85be                	mv	a1,a5
80004f88:	0141                	add	sp,sp,16
80004f8a:	8082                	ret
80004f8c:	4e3d                	li	t3,15
80004f8e:	0bc60a63          	beq	a2,t3,80005042 <__muldf3+0x430>
80004f92:	4e2d                	li	t3,11
80004f94:	f7c60fe3          	beq	a2,t3,80004f12 <__muldf3+0x300>
80004f98:	8746                	mv	a4,a7
80004f9a:	87c2                	mv	a5,a6
80004f9c:	85fa                	mv	a1,t5
80004f9e:	bf9d                	j	80004f14 <__muldf3+0x302>
80004fa0:	4685                	li	a3,1
80004fa2:	8e8d                	sub	a3,a3,a1
80004fa4:	03800613          	li	a2,56
80004fa8:	0ad64163          	blt	a2,a3,8000504a <__muldf3+0x438>
80004fac:	467d                	li	a2,31
80004fae:	04d64b63          	blt	a2,a3,80005004 <__muldf3+0x3f2>
80004fb2:	41e30313          	add	t1,t1,1054
80004fb6:	00671633          	sll	a2,a4,t1
80004fba:	00d7d5b3          	srl	a1,a5,a3
80004fbe:	00679333          	sll	t1,a5,t1
80004fc2:	8e4d                	or	a2,a2,a1
80004fc4:	00603333          	snez	t1,t1
80004fc8:	006667b3          	or	a5,a2,t1
80004fcc:	00d75733          	srl	a4,a4,a3
80004fd0:	0077f693          	and	a3,a5,7
80004fd4:	ce81                	beqz	a3,80004fec <__muldf3+0x3da>
80004fd6:	00f7f693          	and	a3,a5,15
80004fda:	4611                	li	a2,4
80004fdc:	00c68863          	beq	a3,a2,80004fec <__muldf3+0x3da>
80004fe0:	00478693          	add	a3,a5,4
80004fe4:	00f6b633          	sltu	a2,a3,a5
80004fe8:	9732                	add	a4,a4,a2
80004fea:	87b6                	mv	a5,a3
80004fec:	00871693          	sll	a3,a4,0x8
80004ff0:	0606c063          	bltz	a3,80005050 <__muldf3+0x43e>
80004ff4:	01d71e13          	sll	t3,a4,0x1d
80004ff8:	838d                	srl	a5,a5,0x3
80004ffa:	00fe6e33          	or	t3,t3,a5
80004ffe:	830d                	srl	a4,a4,0x3
80005000:	4581                	li	a1,0
80005002:	b7b5                	j	80004f6e <__muldf3+0x35c>
80005004:	5605                	li	a2,-31
80005006:	8e0d                	sub	a2,a2,a1
80005008:	02000813          	li	a6,32
8000500c:	00c75633          	srl	a2,a4,a2
80005010:	4581                	li	a1,0
80005012:	01068663          	beq	a3,a6,8000501e <__muldf3+0x40c>
80005016:	43e30593          	add	a1,t1,1086
8000501a:	00b715b3          	sll	a1,a4,a1
8000501e:	8ddd                	or	a1,a1,a5
80005020:	00b035b3          	snez	a1,a1
80005024:	00b667b3          	or	a5,a2,a1
80005028:	4701                	li	a4,0
8000502a:	b75d                	j	80004fd0 <__muldf3+0x3be>
8000502c:	4701                	li	a4,0
8000502e:	4e01                	li	t3,0
80005030:	7ff00593          	li	a1,2047
80005034:	bf2d                	j	80004f6e <__muldf3+0x35c>
80005036:	00080737          	lui	a4,0x80
8000503a:	7ff00593          	li	a1,2047
8000503e:	4501                	li	a0,0
80005040:	b73d                	j	80004f6e <__muldf3+0x35c>
80005042:	00080737          	lui	a4,0x80
80005046:	4e01                	li	t3,0
80005048:	bfcd                	j	8000503a <__muldf3+0x428>
8000504a:	4701                	li	a4,0
8000504c:	4e01                	li	t3,0
8000504e:	bf4d                	j	80005000 <__muldf3+0x3ee>
80005050:	4701                	li	a4,0
80005052:	4e01                	li	t3,0
80005054:	4585                	li	a1,1
80005056:	bf21                	j	80004f6e <__muldf3+0x35c>

80005058 <__subdf3>:
80005058:	00100837          	lui	a6,0x100
8000505c:	187d                	add	a6,a6,-1 # fffff <__fw_size__+0xe276f>
8000505e:	00b87333          	and	t1,a6,a1
80005062:	0145d713          	srl	a4,a1,0x14
80005066:	01d55793          	srl	a5,a0,0x1d
8000506a:	00d87833          	and	a6,a6,a3
8000506e:	7ff77893          	and	a7,a4,2047
80005072:	00331713          	sll	a4,t1,0x3
80005076:	080e                	sll	a6,a6,0x3
80005078:	0146d313          	srl	t1,a3,0x14
8000507c:	8fd9                	or	a5,a5,a4
8000507e:	01d65713          	srl	a4,a2,0x1d
80005082:	01076733          	or	a4,a4,a6
80005086:	7ff37313          	and	t1,t1,2047
8000508a:	7ff00813          	li	a6,2047
8000508e:	81fd                	srl	a1,a1,0x1f
80005090:	050e                	sll	a0,a0,0x3
80005092:	82fd                	srl	a3,a3,0x1f
80005094:	060e                	sll	a2,a2,0x3
80005096:	01031663          	bne	t1,a6,800050a2 <__subdf3+0x4a>
8000509a:	00c76833          	or	a6,a4,a2
8000509e:	00081463          	bnez	a6,800050a6 <__subdf3+0x4e>
800050a2:	0016c693          	xor	a3,a3,1
800050a6:	40688e33          	sub	t3,a7,t1
800050aa:	22b69963          	bne	a3,a1,800052dc <__subdf3+0x284>
800050ae:	0fc05463          	blez	t3,80005196 <__subdf3+0x13e>
800050b2:	02031a63          	bnez	t1,800050e6 <__subdf3+0x8e>
800050b6:	00c766b3          	or	a3,a4,a2
800050ba:	52068363          	beqz	a3,800055e0 <__subdf3+0x588>
800050be:	fffe0813          	add	a6,t3,-1
800050c2:	00081b63          	bnez	a6,800050d8 <__subdf3+0x80>
800050c6:	962a                	add	a2,a2,a0
800050c8:	00a636b3          	sltu	a3,a2,a0
800050cc:	973e                	add	a4,a4,a5
800050ce:	8532                	mv	a0,a2
800050d0:	00d707b3          	add	a5,a4,a3
800050d4:	4885                	li	a7,1
800050d6:	a8b1                	j	80005132 <__subdf3+0xda>
800050d8:	7ff00693          	li	a3,2047
800050dc:	00de1c63          	bne	t3,a3,800050f4 <__subdf3+0x9c>
800050e0:	7ff00893          	li	a7,2047
800050e4:	a245                	j	80005284 <__subdf3+0x22c>
800050e6:	7ff00693          	li	a3,2047
800050ea:	18d88d63          	beq	a7,a3,80005284 <__subdf3+0x22c>
800050ee:	8872                	mv	a6,t3
800050f0:	29771713          	bset	a4,a4,0x17
800050f4:	03800693          	li	a3,56
800050f8:	0906ca63          	blt	a3,a6,8000518c <__subdf3+0x134>
800050fc:	46fd                	li	a3,31
800050fe:	0706c063          	blt	a3,a6,8000515e <__subdf3+0x106>
80005102:	02000313          	li	t1,32
80005106:	41030333          	sub	t1,t1,a6
8000510a:	006716b3          	sll	a3,a4,t1
8000510e:	01065e33          	srl	t3,a2,a6
80005112:	00661333          	sll	t1,a2,t1
80005116:	01c6e6b3          	or	a3,a3,t3
8000511a:	00603333          	snez	t1,t1
8000511e:	0066e6b3          	or	a3,a3,t1
80005122:	01075833          	srl	a6,a4,a6
80005126:	9536                	add	a0,a0,a3
80005128:	983e                	add	a6,a6,a5
8000512a:	00d536b3          	sltu	a3,a0,a3
8000512e:	00d807b3          	add	a5,a6,a3
80005132:	00879713          	sll	a4,a5,0x8
80005136:	14075763          	bgez	a4,80005284 <__subdf3+0x22c>
8000513a:	0885                	add	a7,a7,1
8000513c:	7ff00713          	li	a4,2047
80005140:	48e88d63          	beq	a7,a4,800055da <__subdf3+0x582>
80005144:	00155713          	srl	a4,a0,0x1
80005148:	8905                	and	a0,a0,1
8000514a:	fff7f693          	and	a3,a5,-1
8000514e:	8d59                	or	a0,a0,a4
80005150:	07fe                	sll	a5,a5,0x1f
80005152:	8d5d                	or	a0,a0,a5
80005154:	49769693          	bclr	a3,a3,0x17
80005158:	0016d793          	srl	a5,a3,0x1
8000515c:	a225                	j	80005284 <__subdf3+0x22c>
8000515e:	fe080693          	add	a3,a6,-32
80005162:	02000e13          	li	t3,32
80005166:	00d756b3          	srl	a3,a4,a3
8000516a:	4301                	li	t1,0
8000516c:	01c80863          	beq	a6,t3,8000517c <__subdf3+0x124>
80005170:	04000313          	li	t1,64
80005174:	41030333          	sub	t1,t1,a6
80005178:	00671333          	sll	t1,a4,t1
8000517c:	00c36333          	or	t1,t1,a2
80005180:	00603333          	snez	t1,t1
80005184:	0066e6b3          	or	a3,a3,t1
80005188:	4801                	li	a6,0
8000518a:	bf71                	j	80005126 <__subdf3+0xce>
8000518c:	00c766b3          	or	a3,a4,a2
80005190:	00d036b3          	snez	a3,a3
80005194:	bfd5                	j	80005188 <__subdf3+0x130>
80005196:	0a0e0a63          	beqz	t3,8000524a <__subdf3+0x1f2>
8000519a:	411306b3          	sub	a3,t1,a7
8000519e:	02089163          	bnez	a7,800051c0 <__subdf3+0x168>
800051a2:	00a7e833          	or	a6,a5,a0
800051a6:	42080263          	beqz	a6,800055ca <__subdf3+0x572>
800051aa:	fff68813          	add	a6,a3,-1
800051ae:	f0080ce3          	beqz	a6,800050c6 <__subdf3+0x6e>
800051b2:	7ff00893          	li	a7,2047
800051b6:	01169c63          	bne	a3,a7,800051ce <__subdf3+0x176>
800051ba:	87ba                	mv	a5,a4
800051bc:	8532                	mv	a0,a2
800051be:	b70d                	j	800050e0 <__subdf3+0x88>
800051c0:	7ff00813          	li	a6,2047
800051c4:	ff030be3          	beq	t1,a6,800051ba <__subdf3+0x162>
800051c8:	8836                	mv	a6,a3
800051ca:	29779793          	bset	a5,a5,0x17
800051ce:	03800693          	li	a3,56
800051d2:	0706c763          	blt	a3,a6,80005240 <__subdf3+0x1e8>
800051d6:	46fd                	li	a3,31
800051d8:	0306cd63          	blt	a3,a6,80005212 <__subdf3+0x1ba>
800051dc:	02000893          	li	a7,32
800051e0:	410888b3          	sub	a7,a7,a6
800051e4:	011796b3          	sll	a3,a5,a7
800051e8:	01055e33          	srl	t3,a0,a6
800051ec:	011518b3          	sll	a7,a0,a7
800051f0:	01c6e6b3          	or	a3,a3,t3
800051f4:	011038b3          	snez	a7,a7
800051f8:	0116e6b3          	or	a3,a3,a7
800051fc:	0107d833          	srl	a6,a5,a6
80005200:	9636                	add	a2,a2,a3
80005202:	983a                	add	a6,a6,a4
80005204:	00d636b3          	sltu	a3,a2,a3
80005208:	8532                	mv	a0,a2
8000520a:	00d807b3          	add	a5,a6,a3
8000520e:	889a                	mv	a7,t1
80005210:	b70d                	j	80005132 <__subdf3+0xda>
80005212:	fe080693          	add	a3,a6,-32
80005216:	02000e13          	li	t3,32
8000521a:	00d7d6b3          	srl	a3,a5,a3
8000521e:	4881                	li	a7,0
80005220:	01c80863          	beq	a6,t3,80005230 <__subdf3+0x1d8>
80005224:	04000893          	li	a7,64
80005228:	410888b3          	sub	a7,a7,a6
8000522c:	011798b3          	sll	a7,a5,a7
80005230:	00a8e8b3          	or	a7,a7,a0
80005234:	011038b3          	snez	a7,a7
80005238:	0116e6b3          	or	a3,a3,a7
8000523c:	4801                	li	a6,0
8000523e:	b7c9                	j	80005200 <__subdf3+0x1a8>
80005240:	00a7e6b3          	or	a3,a5,a0
80005244:	00d036b3          	snez	a3,a3
80005248:	bfd5                	j	8000523c <__subdf3+0x1e4>
8000524a:	00188693          	add	a3,a7,1
8000524e:	7fe6f813          	and	a6,a3,2046
80005252:	06081463          	bnez	a6,800052ba <__subdf3+0x262>
80005256:	00a7e6b3          	or	a3,a5,a0
8000525a:	04089563          	bnez	a7,800052a4 <__subdf3+0x24c>
8000525e:	36068963          	beqz	a3,800055d0 <__subdf3+0x578>
80005262:	00c766b3          	or	a3,a4,a2
80005266:	ce99                	beqz	a3,80005284 <__subdf3+0x22c>
80005268:	962a                	add	a2,a2,a0
8000526a:	00a636b3          	sltu	a3,a2,a0
8000526e:	973e                	add	a4,a4,a5
80005270:	00d707b3          	add	a5,a4,a3
80005274:	00879713          	sll	a4,a5,0x8
80005278:	8532                	mv	a0,a2
8000527a:	00075563          	bgez	a4,80005284 <__subdf3+0x22c>
8000527e:	4885                	li	a7,1
80005280:	49779793          	bclr	a5,a5,0x17
80005284:	00757713          	and	a4,a0,7
80005288:	36070463          	beqz	a4,800055f0 <__subdf3+0x598>
8000528c:	00f57713          	and	a4,a0,15
80005290:	4691                	li	a3,4
80005292:	34d70f63          	beq	a4,a3,800055f0 <__subdf3+0x598>
80005296:	00450713          	add	a4,a0,4
8000529a:	00a736b3          	sltu	a3,a4,a0
8000529e:	97b6                	add	a5,a5,a3
800052a0:	853a                	mv	a0,a4
800052a2:	a6b9                	j	800055f0 <__subdf3+0x598>
800052a4:	da99                	beqz	a3,800051ba <__subdf3+0x162>
800052a6:	8e59                	or	a2,a2,a4
800052a8:	e2060ce3          	beqz	a2,800050e0 <__subdf3+0x88>
800052ac:	4581                	li	a1,0
800052ae:	004007b7          	lui	a5,0x400
800052b2:	4501                	li	a0,0
800052b4:	7ff00893          	li	a7,2047
800052b8:	ae25                	j	800055f0 <__subdf3+0x598>
800052ba:	7ff00813          	li	a6,2047
800052be:	31068c63          	beq	a3,a6,800055d6 <__subdf3+0x57e>
800052c2:	962a                	add	a2,a2,a0
800052c4:	00a63533          	sltu	a0,a2,a0
800052c8:	973e                	add	a4,a4,a5
800052ca:	972a                	add	a4,a4,a0
800052cc:	01f71513          	sll	a0,a4,0x1f
800052d0:	8205                	srl	a2,a2,0x1
800052d2:	8d51                	or	a0,a0,a2
800052d4:	00175793          	srl	a5,a4,0x1
800052d8:	88b6                	mv	a7,a3
800052da:	b76d                	j	80005284 <__subdf3+0x22c>
800052dc:	0dc05a63          	blez	t3,800053b0 <__subdf3+0x358>
800052e0:	08031563          	bnez	t1,8000536a <__subdf3+0x312>
800052e4:	00c766b3          	or	a3,a4,a2
800052e8:	2e068c63          	beqz	a3,800055e0 <__subdf3+0x588>
800052ec:	fffe0693          	add	a3,t3,-1
800052f0:	ee81                	bnez	a3,80005308 <__subdf3+0x2b0>
800052f2:	40c50633          	sub	a2,a0,a2
800052f6:	00c536b3          	sltu	a3,a0,a2
800052fa:	40e78733          	sub	a4,a5,a4
800052fe:	8532                	mv	a0,a2
80005300:	40d707b3          	sub	a5,a4,a3
80005304:	4885                	li	a7,1
80005306:	a0b9                	j	80005354 <__subdf3+0x2fc>
80005308:	7ff00813          	li	a6,2047
8000530c:	dd0e0ae3          	beq	t3,a6,800050e0 <__subdf3+0x88>
80005310:	03800813          	li	a6,56
80005314:	08d84a63          	blt	a6,a3,800053a8 <__subdf3+0x350>
80005318:	487d                	li	a6,31
8000531a:	06d84063          	blt	a6,a3,8000537a <__subdf3+0x322>
8000531e:	02000313          	li	t1,32
80005322:	40d30333          	sub	t1,t1,a3
80005326:	00d65e33          	srl	t3,a2,a3
8000532a:	00671833          	sll	a6,a4,t1
8000532e:	00661333          	sll	t1,a2,t1
80005332:	01c86833          	or	a6,a6,t3
80005336:	00603333          	snez	t1,t1
8000533a:	00686633          	or	a2,a6,t1
8000533e:	00d756b3          	srl	a3,a4,a3
80005342:	40c50633          	sub	a2,a0,a2
80005346:	00c53733          	sltu	a4,a0,a2
8000534a:	40d786b3          	sub	a3,a5,a3
8000534e:	8532                	mv	a0,a2
80005350:	40e687b3          	sub	a5,a3,a4
80005354:	00879713          	sll	a4,a5,0x8
80005358:	f20756e3          	bgez	a4,80005284 <__subdf3+0x22c>
8000535c:	00800837          	lui	a6,0x800
80005360:	187d                	add	a6,a6,-1 # 7fffff <_stack+0x5f7fff>
80005362:	0107f833          	and	a6,a5,a6
80005366:	832a                	mv	t1,a0
80005368:	aa5d                	j	8000551e <__subdf3+0x4c6>
8000536a:	7ff00693          	li	a3,2047
8000536e:	f0d88be3          	beq	a7,a3,80005284 <__subdf3+0x22c>
80005372:	86f2                	mv	a3,t3
80005374:	29771713          	bset	a4,a4,0x17
80005378:	bf61                	j	80005310 <__subdf3+0x2b8>
8000537a:	fe068813          	add	a6,a3,-32
8000537e:	02000e13          	li	t3,32
80005382:	01075833          	srl	a6,a4,a6
80005386:	4301                	li	t1,0
80005388:	01c68863          	beq	a3,t3,80005398 <__subdf3+0x340>
8000538c:	04000313          	li	t1,64
80005390:	40d30333          	sub	t1,t1,a3
80005394:	00671333          	sll	t1,a4,t1
80005398:	00c36333          	or	t1,t1,a2
8000539c:	00603333          	snez	t1,t1
800053a0:	00686633          	or	a2,a6,t1
800053a4:	4681                	li	a3,0
800053a6:	bf71                	j	80005342 <__subdf3+0x2ea>
800053a8:	8e59                	or	a2,a2,a4
800053aa:	00c03633          	snez	a2,a2
800053ae:	bfdd                	j	800053a4 <__subdf3+0x34c>
800053b0:	0c0e0563          	beqz	t3,8000547a <__subdf3+0x422>
800053b4:	41130833          	sub	a6,t1,a7
800053b8:	02089b63          	bnez	a7,800053ee <__subdf3+0x396>
800053bc:	00a7e5b3          	or	a1,a5,a0
800053c0:	22058263          	beqz	a1,800055e4 <__subdf3+0x58c>
800053c4:	fff80593          	add	a1,a6,-1
800053c8:	e991                	bnez	a1,800053dc <__subdf3+0x384>
800053ca:	40a60533          	sub	a0,a2,a0
800053ce:	8f1d                	sub	a4,a4,a5
800053d0:	00a63633          	sltu	a2,a2,a0
800053d4:	40c707b3          	sub	a5,a4,a2
800053d8:	85b6                	mv	a1,a3
800053da:	b72d                	j	80005304 <__subdf3+0x2ac>
800053dc:	7ff00893          	li	a7,2047
800053e0:	01181e63          	bne	a6,a7,800053fc <__subdf3+0x3a4>
800053e4:	87ba                	mv	a5,a4
800053e6:	8532                	mv	a0,a2
800053e8:	7ff00893          	li	a7,2047
800053ec:	a84d                	j	8000549e <__subdf3+0x446>
800053ee:	7ff00593          	li	a1,2047
800053f2:	feb309e3          	beq	t1,a1,800053e4 <__subdf3+0x38c>
800053f6:	85c2                	mv	a1,a6
800053f8:	29779793          	bset	a5,a5,0x17
800053fc:	03800813          	li	a6,56
80005400:	06b84963          	blt	a6,a1,80005472 <__subdf3+0x41a>
80005404:	487d                	li	a6,31
80005406:	02b84f63          	blt	a6,a1,80005444 <__subdf3+0x3ec>
8000540a:	02000893          	li	a7,32
8000540e:	40b888b3          	sub	a7,a7,a1
80005412:	00b55e33          	srl	t3,a0,a1
80005416:	01179833          	sll	a6,a5,a7
8000541a:	011518b3          	sll	a7,a0,a7
8000541e:	01c86833          	or	a6,a6,t3
80005422:	011038b3          	snez	a7,a7
80005426:	01186533          	or	a0,a6,a7
8000542a:	00b7d5b3          	srl	a1,a5,a1
8000542e:	40a60533          	sub	a0,a2,a0
80005432:	40b705b3          	sub	a1,a4,a1
80005436:	00a63633          	sltu	a2,a2,a0
8000543a:	40c587b3          	sub	a5,a1,a2
8000543e:	889a                	mv	a7,t1
80005440:	85b6                	mv	a1,a3
80005442:	bf09                	j	80005354 <__subdf3+0x2fc>
80005444:	fe058813          	add	a6,a1,-32
80005448:	02000e13          	li	t3,32
8000544c:	0107d833          	srl	a6,a5,a6
80005450:	4881                	li	a7,0
80005452:	01c58863          	beq	a1,t3,80005462 <__subdf3+0x40a>
80005456:	04000893          	li	a7,64
8000545a:	40b888b3          	sub	a7,a7,a1
8000545e:	011798b3          	sll	a7,a5,a7
80005462:	00a8e8b3          	or	a7,a7,a0
80005466:	011038b3          	snez	a7,a7
8000546a:	01186533          	or	a0,a6,a7
8000546e:	4581                	li	a1,0
80005470:	bf7d                	j	8000542e <__subdf3+0x3d6>
80005472:	8d5d                	or	a0,a0,a5
80005474:	00a03533          	snez	a0,a0
80005478:	bfdd                	j	8000546e <__subdf3+0x416>
8000547a:	00188813          	add	a6,a7,1
8000547e:	7fe87813          	and	a6,a6,2046
80005482:	06081863          	bnez	a6,800054f2 <__subdf3+0x49a>
80005486:	00c76833          	or	a6,a4,a2
8000548a:	00a7e333          	or	t1,a5,a0
8000548e:	04089763          	bnez	a7,800054dc <__subdf3+0x484>
80005492:	00031863          	bnez	t1,800054a2 <__subdf3+0x44a>
80005496:	0e080363          	beqz	a6,8000557c <__subdf3+0x524>
8000549a:	87ba                	mv	a5,a4
8000549c:	8532                	mv	a0,a2
8000549e:	85b6                	mv	a1,a3
800054a0:	b3d5                	j	80005284 <__subdf3+0x22c>
800054a2:	de0801e3          	beqz	a6,80005284 <__subdf3+0x22c>
800054a6:	40c50333          	sub	t1,a0,a2
800054aa:	00653e33          	sltu	t3,a0,t1
800054ae:	40e78833          	sub	a6,a5,a4
800054b2:	41c80833          	sub	a6,a6,t3
800054b6:	00881e13          	sll	t3,a6,0x8
800054ba:	000e5a63          	bgez	t3,800054ce <__subdf3+0x476>
800054be:	40a60533          	sub	a0,a2,a0
800054c2:	8f1d                	sub	a4,a4,a5
800054c4:	00a63633          	sltu	a2,a2,a0
800054c8:	40c707b3          	sub	a5,a4,a2
800054cc:	bfc9                	j	8000549e <__subdf3+0x446>
800054ce:	01036533          	or	a0,t1,a6
800054d2:	10050d63          	beqz	a0,800055ec <__subdf3+0x594>
800054d6:	87c2                	mv	a5,a6
800054d8:	851a                	mv	a0,t1
800054da:	b36d                	j	80005284 <__subdf3+0x22c>
800054dc:	00031863          	bnez	t1,800054ec <__subdf3+0x494>
800054e0:	dc0806e3          	beqz	a6,800052ac <__subdf3+0x254>
800054e4:	87ba                	mv	a5,a4
800054e6:	8532                	mv	a0,a2
800054e8:	85b6                	mv	a1,a3
800054ea:	bedd                	j	800050e0 <__subdf3+0x88>
800054ec:	be080ae3          	beqz	a6,800050e0 <__subdf3+0x88>
800054f0:	bb75                	j	800052ac <__subdf3+0x254>
800054f2:	40c50e33          	sub	t3,a0,a2
800054f6:	01c53eb3          	sltu	t4,a0,t3
800054fa:	40e78833          	sub	a6,a5,a4
800054fe:	41d80833          	sub	a6,a6,t4
80005502:	00881e93          	sll	t4,a6,0x8
80005506:	8372                	mv	t1,t3
80005508:	060ed563          	bgez	t4,80005572 <__subdf3+0x51a>
8000550c:	40a60333          	sub	t1,a2,a0
80005510:	40f70833          	sub	a6,a4,a5
80005514:	00663633          	sltu	a2,a2,t1
80005518:	40c80833          	sub	a6,a6,a2
8000551c:	85b6                	mv	a1,a3
8000551e:	06080163          	beqz	a6,80005580 <__subdf3+0x528>
80005522:	60081513          	clz	a0,a6
80005526:	1561                	add	a0,a0,-8
80005528:	02000793          	li	a5,32
8000552c:	8f89                	sub	a5,a5,a0
8000552e:	00a81833          	sll	a6,a6,a0
80005532:	00f357b3          	srl	a5,t1,a5
80005536:	0107e7b3          	or	a5,a5,a6
8000553a:	00a31833          	sll	a6,t1,a0
8000553e:	09154063          	blt	a0,a7,800055be <__subdf3+0x566>
80005542:	41150533          	sub	a0,a0,a7
80005546:	00150693          	add	a3,a0,1
8000554a:	477d                	li	a4,31
8000554c:	04d74563          	blt	a4,a3,80005596 <__subdf3+0x53e>
80005550:	02000713          	li	a4,32
80005554:	8f15                	sub	a4,a4,a3
80005556:	00e79533          	sll	a0,a5,a4
8000555a:	00d85633          	srl	a2,a6,a3
8000555e:	00e81733          	sll	a4,a6,a4
80005562:	8d51                	or	a0,a0,a2
80005564:	00e03733          	snez	a4,a4
80005568:	8d59                	or	a0,a0,a4
8000556a:	00d7d7b3          	srl	a5,a5,a3
8000556e:	4881                	li	a7,0
80005570:	bb11                	j	80005284 <__subdf3+0x22c>
80005572:	010e6e33          	or	t3,t3,a6
80005576:	fa0e14e3          	bnez	t3,8000551e <__subdf3+0x4c6>
8000557a:	4881                	li	a7,0
8000557c:	4581                	li	a1,0
8000557e:	a8b1                	j	800055da <__subdf3+0x582>
80005580:	60031793          	clz	a5,t1
80005584:	477d                	li	a4,31
80005586:	01878513          	add	a0,a5,24 # 400018 <_stack+0x1f8018>
8000558a:	f8a75fe3          	bge	a4,a0,80005528 <__subdf3+0x4d0>
8000558e:	17e1                	add	a5,a5,-8
80005590:	00f317b3          	sll	a5,t1,a5
80005594:	b76d                	j	8000553e <__subdf3+0x4e6>
80005596:	1505                	add	a0,a0,-31
80005598:	02000613          	li	a2,32
8000559c:	00a7d533          	srl	a0,a5,a0
800055a0:	4701                	li	a4,0
800055a2:	00c68763          	beq	a3,a2,800055b0 <__subdf3+0x558>
800055a6:	04000713          	li	a4,64
800055aa:	8f15                	sub	a4,a4,a3
800055ac:	00e79733          	sll	a4,a5,a4
800055b0:	00e86733          	or	a4,a6,a4
800055b4:	00e03733          	snez	a4,a4
800055b8:	8d59                	or	a0,a0,a4
800055ba:	4781                	li	a5,0
800055bc:	bf4d                	j	8000556e <__subdf3+0x516>
800055be:	40a888b3          	sub	a7,a7,a0
800055c2:	49779793          	bclr	a5,a5,0x17
800055c6:	8542                	mv	a0,a6
800055c8:	b975                	j	80005284 <__subdf3+0x22c>
800055ca:	87ba                	mv	a5,a4
800055cc:	8532                	mv	a0,a2
800055ce:	b329                	j	800052d8 <__subdf3+0x280>
800055d0:	87ba                	mv	a5,a4
800055d2:	8532                	mv	a0,a2
800055d4:	b945                	j	80005284 <__subdf3+0x22c>
800055d6:	7ff00893          	li	a7,2047
800055da:	4781                	li	a5,0
800055dc:	4501                	li	a0,0
800055de:	a809                	j	800055f0 <__subdf3+0x598>
800055e0:	88f2                	mv	a7,t3
800055e2:	b14d                	j	80005284 <__subdf3+0x22c>
800055e4:	87ba                	mv	a5,a4
800055e6:	8532                	mv	a0,a2
800055e8:	88c2                	mv	a7,a6
800055ea:	bd55                	j	8000549e <__subdf3+0x446>
800055ec:	4781                	li	a5,0
800055ee:	4581                	li	a1,0
800055f0:	00879713          	sll	a4,a5,0x8
800055f4:	00075b63          	bgez	a4,8000560a <__subdf3+0x5b2>
800055f8:	0885                	add	a7,a7,1
800055fa:	7ff00713          	li	a4,2047
800055fe:	49779793          	bclr	a5,a5,0x17
80005602:	00e89463          	bne	a7,a4,8000560a <__subdf3+0x5b2>
80005606:	4781                	li	a5,0
80005608:	4501                	li	a0,0
8000560a:	01d79693          	sll	a3,a5,0x1d
8000560e:	810d                	srl	a0,a0,0x3
80005610:	7ff00713          	li	a4,2047
80005614:	8ec9                	or	a3,a3,a0
80005616:	838d                	srl	a5,a5,0x3
80005618:	00e89963          	bne	a7,a4,8000562a <__subdf3+0x5d2>
8000561c:	8edd                	or	a3,a3,a5
8000561e:	4781                	li	a5,0
80005620:	c689                	beqz	a3,8000562a <__subdf3+0x5d2>
80005622:	000807b7          	lui	a5,0x80
80005626:	4681                	li	a3,0
80005628:	4581                	li	a1,0
8000562a:	01489713          	sll	a4,a7,0x14
8000562e:	7ff00637          	lui	a2,0x7ff00
80005632:	07b2                	sll	a5,a5,0xc
80005634:	8f71                	and	a4,a4,a2
80005636:	83b1                	srl	a5,a5,0xc
80005638:	8fd9                	or	a5,a5,a4
8000563a:	01f59713          	sll	a4,a1,0x1f
8000563e:	00e7e633          	or	a2,a5,a4
80005642:	8536                	mv	a0,a3
80005644:	85b2                	mv	a1,a2
80005646:	8082                	ret

80005648 <__fixdfsi>:
80005648:	0145d713          	srl	a4,a1,0x14
8000564c:	00c59793          	sll	a5,a1,0xc
80005650:	7ff77713          	and	a4,a4,2047
80005654:	3fe00693          	li	a3,1022
80005658:	83b1                	srl	a5,a5,0xc
8000565a:	81fd                	srl	a1,a1,0x1f
8000565c:	04e6d563          	bge	a3,a4,800056a6 <__fixdfsi+0x5e>
80005660:	41d00693          	li	a3,1053
80005664:	00e6d763          	bge	a3,a4,80005672 <__fixdfsi+0x2a>
80005668:	80000537          	lui	a0,0x80000
8000566c:	157d                	add	a0,a0,-1 # 7fffffff <__noncacheable_end__+0x7edbffff>
8000566e:	952e                	add	a0,a0,a1
80005670:	8082                	ret
80005672:	43300693          	li	a3,1075
80005676:	8e99                	sub	a3,a3,a4
80005678:	467d                	li	a2,31
8000567a:	29479793          	bset	a5,a5,0x14
8000567e:	00d64d63          	blt	a2,a3,80005698 <__fixdfsi+0x50>
80005682:	bed70713          	add	a4,a4,-1043 # 7fbed <__fw_size__+0x6235d>
80005686:	00e797b3          	sll	a5,a5,a4
8000568a:	00d55533          	srl	a0,a0,a3
8000568e:	8d5d                	or	a0,a0,a5
80005690:	cd81                	beqz	a1,800056a8 <__fixdfsi+0x60>
80005692:	40a00533          	neg	a0,a0
80005696:	8082                	ret
80005698:	41300693          	li	a3,1043
8000569c:	40e68733          	sub	a4,a3,a4
800056a0:	00e7d533          	srl	a0,a5,a4
800056a4:	b7f5                	j	80005690 <__fixdfsi+0x48>
800056a6:	4501                	li	a0,0
800056a8:	8082                	ret

800056aa <__fixunsdfsi>:
800056aa:	0145d713          	srl	a4,a1,0x14
800056ae:	00c59793          	sll	a5,a1,0xc
800056b2:	7ff77713          	and	a4,a4,2047
800056b6:	3fe00613          	li	a2,1022
800056ba:	86aa                	mv	a3,a0
800056bc:	83b1                	srl	a5,a5,0xc
800056be:	81fd                	srl	a1,a1,0x1f
800056c0:	04e65363          	bge	a2,a4,80005706 <__fixunsdfsi+0x5c>
800056c4:	0015c613          	xor	a2,a1,1
800056c8:	41e60613          	add	a2,a2,1054 # 7ff0041e <__noncacheable_end__+0x7ecc041e>
800056cc:	fff58513          	add	a0,a1,-1
800056d0:	02c75c63          	bge	a4,a2,80005708 <__fixunsdfsi+0x5e>
800056d4:	4501                	li	a0,0
800056d6:	e98d                	bnez	a1,80005708 <__fixunsdfsi+0x5e>
800056d8:	43300613          	li	a2,1075
800056dc:	8e19                	sub	a2,a2,a4
800056de:	45fd                	li	a1,31
800056e0:	29479793          	bset	a5,a5,0x14
800056e4:	00c5ca63          	blt	a1,a2,800056f8 <__fixunsdfsi+0x4e>
800056e8:	bed70713          	add	a4,a4,-1043
800056ec:	00e797b3          	sll	a5,a5,a4
800056f0:	00c6d533          	srl	a0,a3,a2
800056f4:	8d5d                	or	a0,a0,a5
800056f6:	8082                	ret
800056f8:	41300693          	li	a3,1043
800056fc:	40e68733          	sub	a4,a3,a4
80005700:	00e7d533          	srl	a0,a5,a4
80005704:	8082                	ret
80005706:	4501                	li	a0,0
80005708:	8082                	ret

8000570a <__floatunsidf>:
8000570a:	cd15                	beqz	a0,80005746 <__floatunsidf+0x3c>
8000570c:	41e00693          	li	a3,1054
80005710:	47a9                	li	a5,10
80005712:	60051713          	clz	a4,a0
80005716:	8e99                	sub	a3,a3,a4
80005718:	02e7c263          	blt	a5,a4,8000573c <__floatunsidf+0x32>
8000571c:	47ad                	li	a5,11
8000571e:	8f99                	sub	a5,a5,a4
80005720:	0755                	add	a4,a4,21
80005722:	00f557b3          	srl	a5,a0,a5
80005726:	00e51533          	sll	a0,a0,a4
8000572a:	07b2                	sll	a5,a5,0xc
8000572c:	06d2                	sll	a3,a3,0x14
8000572e:	83b1                	srl	a5,a5,0xc
80005730:	862a                	mv	a2,a0
80005732:	00f6e733          	or	a4,a3,a5
80005736:	8532                	mv	a0,a2
80005738:	85ba                	mv	a1,a4
8000573a:	8082                	ret
8000573c:	1755                	add	a4,a4,-11
8000573e:	00e517b3          	sll	a5,a0,a4
80005742:	4501                	li	a0,0
80005744:	b7dd                	j	8000572a <__floatunsidf+0x20>
80005746:	4781                	li	a5,0
80005748:	4681                	li	a3,0
8000574a:	b7c5                	j	8000572a <__floatunsidf+0x20>

8000574c <__truncdfsf2>:
8000574c:	0145d613          	srl	a2,a1,0x14
80005750:	7ff67613          	and	a2,a2,2047
80005754:	00c59793          	sll	a5,a1,0xc
80005758:	00160713          	add	a4,a2,1
8000575c:	83a5                	srl	a5,a5,0x9
8000575e:	01d55693          	srl	a3,a0,0x1d
80005762:	7fe77713          	and	a4,a4,2046
80005766:	8edd                	or	a3,a3,a5
80005768:	81fd                	srl	a1,a1,0x1f
8000576a:	00351793          	sll	a5,a0,0x3
8000576e:	c341                	beqz	a4,800057ee <__truncdfsf2+0xa2>
80005770:	c8060713          	add	a4,a2,-896
80005774:	0fe00813          	li	a6,254
80005778:	08e84963          	blt	a6,a4,8000580a <__truncdfsf2+0xbe>
8000577c:	04e04e63          	bgtz	a4,800057d8 <__truncdfsf2+0x8c>
80005780:	5525                	li	a0,-23
80005782:	0ca74563          	blt	a4,a0,8000584c <__truncdfsf2+0x100>
80005786:	4579                	li	a0,30
80005788:	8d19                	sub	a0,a0,a4
8000578a:	487d                	li	a6,31
8000578c:	29769693          	bset	a3,a3,0x17
80005790:	02a84063          	blt	a6,a0,800057b0 <__truncdfsf2+0x64>
80005794:	c8260613          	add	a2,a2,-894
80005798:	00a7d533          	srl	a0,a5,a0
8000579c:	00c797b3          	sll	a5,a5,a2
800057a0:	00f037b3          	snez	a5,a5
800057a4:	00c696b3          	sll	a3,a3,a2
800057a8:	8fd5                	or	a5,a5,a3
800057aa:	8fc9                	or	a5,a5,a0
800057ac:	4701                	li	a4,0
800057ae:	a825                	j	800057e6 <__truncdfsf2+0x9a>
800057b0:	5879                	li	a6,-2
800057b2:	40e80833          	sub	a6,a6,a4
800057b6:	02000893          	li	a7,32
800057ba:	0106d833          	srl	a6,a3,a6
800057be:	4701                	li	a4,0
800057c0:	01150663          	beq	a0,a7,800057cc <__truncdfsf2+0x80>
800057c4:	ca260613          	add	a2,a2,-862
800057c8:	00c69733          	sll	a4,a3,a2
800057cc:	8f5d                	or	a4,a4,a5
800057ce:	00e03733          	snez	a4,a4
800057d2:	00e867b3          	or	a5,a6,a4
800057d6:	bfd9                	j	800057ac <__truncdfsf2+0x60>
800057d8:	051a                	sll	a0,a0,0x6
800057da:	00a03533          	snez	a0,a0
800057de:	068e                	sll	a3,a3,0x3
800057e0:	83f5                	srl	a5,a5,0x1d
800057e2:	8ec9                	or	a3,a3,a0
800057e4:	8fd5                	or	a5,a5,a3
800057e6:	0077f693          	and	a3,a5,7
800057ea:	c29d                	beqz	a3,80005810 <__truncdfsf2+0xc4>
800057ec:	a095                	j	80005850 <__truncdfsf2+0x104>
800057ee:	8fd5                	or	a5,a5,a3
800057f0:	e601                	bnez	a2,800057f8 <__truncdfsf2+0xac>
800057f2:	00f037b3          	snez	a5,a5
800057f6:	bf5d                	j	800057ac <__truncdfsf2+0x60>
800057f8:	0ff00713          	li	a4,255
800057fc:	cb91                	beqz	a5,80005810 <__truncdfsf2+0xc4>
800057fe:	068e                	sll	a3,a3,0x3
80005800:	0006e793          	or	a5,a3,0
80005804:	29979793          	bset	a5,a5,0x19
80005808:	bff9                	j	800057e6 <__truncdfsf2+0x9a>
8000580a:	4781                	li	a5,0
8000580c:	0ff00713          	li	a4,255
80005810:	00579693          	sll	a3,a5,0x5
80005814:	0006da63          	bgez	a3,80005828 <__truncdfsf2+0xdc>
80005818:	0705                	add	a4,a4,1
8000581a:	0ff00693          	li	a3,255
8000581e:	49a79793          	bclr	a5,a5,0x1a
80005822:	00d71363          	bne	a4,a3,80005828 <__truncdfsf2+0xdc>
80005826:	4781                	li	a5,0
80005828:	0ff00693          	li	a3,255
8000582c:	838d                	srl	a5,a5,0x3
8000582e:	00d71663          	bne	a4,a3,8000583a <__truncdfsf2+0xee>
80005832:	c781                	beqz	a5,8000583a <__truncdfsf2+0xee>
80005834:	004007b7          	lui	a5,0x400
80005838:	4581                	li	a1,0
8000583a:	7f8006b7          	lui	a3,0x7f800
8000583e:	075e                	sll	a4,a4,0x17
80005840:	8f75                	and	a4,a4,a3
80005842:	8f5d                	or	a4,a4,a5
80005844:	01f59513          	sll	a0,a1,0x1f
80005848:	8d59                	or	a0,a0,a4
8000584a:	8082                	ret
8000584c:	4785                	li	a5,1
8000584e:	4701                	li	a4,0
80005850:	00f7f693          	and	a3,a5,15
80005854:	4611                	li	a2,4
80005856:	fac68de3          	beq	a3,a2,80005810 <__truncdfsf2+0xc4>
8000585a:	0791                	add	a5,a5,4 # 400004 <_stack+0x1f8004>
8000585c:	bf55                	j	80005810 <__truncdfsf2+0xc4>

8000585e <memcpy>:
8000585e:	832a                	mv	t1,a0
80005860:	ca09                	beqz	a2,80005872 <memcpy+0x14>
80005862:	00058383          	lb	t2,0(a1)
80005866:	00730023          	sb	t2,0(t1)
8000586a:	167d                	add	a2,a2,-1
8000586c:	0305                	add	t1,t1,1
8000586e:	0585                	add	a1,a1,1
80005870:	fa6d                	bnez	a2,80005862 <memcpy+0x4>
80005872:	8082                	ret

80005874 <memmove>:
80005874:	c215                	beqz	a2,80005898 <memmove+0x24>
80005876:	832a                	mv	t1,a0
80005878:	4685                	li	a3,1
8000587a:	00b56763          	bltu	a0,a1,80005888 <memmove+0x14>
8000587e:	56fd                	li	a3,-1
80005880:	fff60713          	add	a4,a2,-1
80005884:	933a                	add	t1,t1,a4
80005886:	95ba                	add	a1,a1,a4
80005888:	00058383          	lb	t2,0(a1)
8000588c:	00730023          	sb	t2,0(t1)
80005890:	167d                	add	a2,a2,-1
80005892:	9336                	add	t1,t1,a3
80005894:	95b6                	add	a1,a1,a3
80005896:	fa6d                	bnez	a2,80005888 <memmove+0x14>
80005898:	8082                	ret

8000589a <memset>:
8000589a:	832a                	mv	t1,a0
8000589c:	c611                	beqz	a2,800058a8 <memset+0xe>
8000589e:	00b30023          	sb	a1,0(t1)
800058a2:	167d                	add	a2,a2,-1
800058a4:	0305                	add	t1,t1,1
800058a6:	fe65                	bnez	a2,8000589e <memset+0x4>
800058a8:	8082                	ret

800058aa <__eqdf2>:
800058aa:	0145d713          	srl	a4,a1,0x14
800058ae:	001007b7          	lui	a5,0x100
800058b2:	17fd                	add	a5,a5,-1 # fffff <__fw_size__+0xe276f>
800058b4:	0146d813          	srl	a6,a3,0x14
800058b8:	832a                	mv	t1,a0
800058ba:	8eaa                	mv	t4,a0
800058bc:	7ff77713          	and	a4,a4,2047
800058c0:	7ff00513          	li	a0,2047
800058c4:	00b7f8b3          	and	a7,a5,a1
800058c8:	8f32                	mv	t5,a2
800058ca:	8ff5                	and	a5,a5,a3
800058cc:	81fd                	srl	a1,a1,0x1f
800058ce:	7ff87813          	and	a6,a6,2047
800058d2:	82fd                	srl	a3,a3,0x1f
800058d4:	00a71a63          	bne	a4,a0,800058e8 <__eqdf2+0x3e>
800058d8:	0068ee33          	or	t3,a7,t1
800058dc:	4505                	li	a0,1
800058de:	000e1463          	bnez	t3,800058e6 <__eqdf2+0x3c>
800058e2:	00e80563          	beq	a6,a4,800058ec <__eqdf2+0x42>
800058e6:	8082                	ret
800058e8:	00a81563          	bne	a6,a0,800058f2 <__eqdf2+0x48>
800058ec:	8e5d                	or	a2,a2,a5
800058ee:	4505                	li	a0,1
800058f0:	fa7d                	bnez	a2,800058e6 <__eqdf2+0x3c>
800058f2:	4505                	li	a0,1
800058f4:	ff0719e3          	bne	a4,a6,800058e6 <__eqdf2+0x3c>
800058f8:	fef897e3          	bne	a7,a5,800058e6 <__eqdf2+0x3c>
800058fc:	ffee95e3          	bne	t4,t5,800058e6 <__eqdf2+0x3c>
80005900:	00d58863          	beq	a1,a3,80005910 <__eqdf2+0x66>
80005904:	f36d                	bnez	a4,800058e6 <__eqdf2+0x3c>
80005906:	0068e8b3          	or	a7,a7,t1
8000590a:	01103533          	snez	a0,a7
8000590e:	8082                	ret
80005910:	4501                	li	a0,0
80005912:	8082                	ret

80005914 <__unorddf2>:
80005914:	001007b7          	lui	a5,0x100
80005918:	17fd                	add	a5,a5,-1 # fffff <__fw_size__+0xe276f>
8000591a:	00b7f733          	and	a4,a5,a1
8000591e:	81d1                	srl	a1,a1,0x14
80005920:	fff5c593          	not	a1,a1
80005924:	8ff5                	and	a5,a5,a3
80005926:	01559813          	sll	a6,a1,0x15
8000592a:	82d1                	srl	a3,a3,0x14
8000592c:	7ff6f693          	and	a3,a3,2047
80005930:	00081563          	bnez	a6,8000593a <__unorddf2+0x26>
80005934:	8f49                	or	a4,a4,a0
80005936:	4505                	li	a0,1
80005938:	eb09                	bnez	a4,8000594a <__unorddf2+0x36>
8000593a:	7ff00713          	li	a4,2047
8000593e:	4501                	li	a0,0
80005940:	00e69563          	bne	a3,a4,8000594a <__unorddf2+0x36>
80005944:	8fd1                	or	a5,a5,a2
80005946:	00f03533          	snez	a0,a5
8000594a:	8082                	ret

8000594c <__floatsidf>:
8000594c:	c539                	beqz	a0,8000599a <__floatsidf+0x4e>
8000594e:	40a00733          	neg	a4,a0
80005952:	41e00613          	li	a2,1054
80005956:	47a9                	li	a5,10
80005958:	0ae56733          	max	a4,a0,a4
8000595c:	01f55593          	srl	a1,a0,0x1f
80005960:	60071693          	clz	a3,a4
80005964:	8e15                	sub	a2,a2,a3
80005966:	02d7c463          	blt	a5,a3,8000598e <__floatsidf+0x42>
8000596a:	47ad                	li	a5,11
8000596c:	8f95                	sub	a5,a5,a3
8000596e:	06d5                	add	a3,a3,21 # 7f800015 <__noncacheable_end__+0x7e5c0015>
80005970:	00f757b3          	srl	a5,a4,a5
80005974:	852e                	mv	a0,a1
80005976:	00d71733          	sll	a4,a4,a3
8000597a:	07b2                	sll	a5,a5,0xc
8000597c:	83b1                	srl	a5,a5,0xc
8000597e:	0652                	sll	a2,a2,0x14
80005980:	8e5d                	or	a2,a2,a5
80005982:	057e                	sll	a0,a0,0x1f
80005984:	00a667b3          	or	a5,a2,a0
80005988:	85be                	mv	a1,a5
8000598a:	853a                	mv	a0,a4
8000598c:	8082                	ret
8000598e:	16d5                	add	a3,a3,-11
80005990:	00d717b3          	sll	a5,a4,a3
80005994:	852e                	mv	a0,a1
80005996:	4701                	li	a4,0
80005998:	b7cd                	j	8000597a <__floatsidf+0x2e>
8000599a:	4601                	li	a2,0
8000599c:	4781                	li	a5,0
8000599e:	bfe5                	j	80005996 <__floatsidf+0x4a>

800059a0 <__fixdfdi>:
800059a0:	0145d613          	srl	a2,a1,0x14
800059a4:	7ff67613          	and	a2,a2,2047
800059a8:	3fe00713          	li	a4,1022
800059ac:	08c75363          	bge	a4,a2,80005a32 <__fixdfdi+0x92>
800059b0:	1141                	add	sp,sp,-16
800059b2:	c422                	sw	s0,8(sp)
800059b4:	c606                	sw	ra,12(sp)
800059b6:	43d00713          	li	a4,1085
800059ba:	01f5d413          	srl	s0,a1,0x1f
800059be:	00c75c63          	bge	a4,a2,800059d6 <__fixdfdi+0x36>
800059c2:	800005b7          	lui	a1,0x80000
800059c6:	15fd                	add	a1,a1,-1 # 7fffffff <__noncacheable_end__+0x7edbffff>
800059c8:	fff40513          	add	a0,s0,-1
800059cc:	95a2                	add	a1,a1,s0
800059ce:	40b2                	lw	ra,12(sp)
800059d0:	4422                	lw	s0,8(sp)
800059d2:	0141                	add	sp,sp,16
800059d4:	8082                	ret
800059d6:	00c59793          	sll	a5,a1,0xc
800059da:	83b1                	srl	a5,a5,0xc
800059dc:	0007e593          	or	a1,a5,0
800059e0:	43200793          	li	a5,1074
800059e4:	29459593          	bset	a1,a1,0x14
800059e8:	00c7de63          	bge	a5,a2,80005a04 <__fixdfdi+0x64>
800059ec:	bcd60613          	add	a2,a2,-1075
800059f0:	2b99                	jal	80005f46 <__ashldi3>
800059f2:	dc71                	beqz	s0,800059ce <__fixdfdi+0x2e>
800059f4:	00a037b3          	snez	a5,a0
800059f8:	40b005b3          	neg	a1,a1
800059fc:	8d9d                	sub	a1,a1,a5
800059fe:	40a00533          	neg	a0,a0
80005a02:	b7f1                	j	800059ce <__fixdfdi+0x2e>
80005a04:	43300793          	li	a5,1075
80005a08:	8f91                	sub	a5,a5,a2
80005a0a:	477d                	li	a4,31
80005a0c:	00f74c63          	blt	a4,a5,80005a24 <__fixdfdi+0x84>
80005a10:	bed60613          	add	a2,a2,-1043
80005a14:	00c59633          	sll	a2,a1,a2
80005a18:	00f55533          	srl	a0,a0,a5
80005a1c:	8d51                	or	a0,a0,a2
80005a1e:	00f5d5b3          	srl	a1,a1,a5
80005a22:	bfc1                	j	800059f2 <__fixdfdi+0x52>
80005a24:	41300513          	li	a0,1043
80005a28:	8d11                	sub	a0,a0,a2
80005a2a:	00a5d533          	srl	a0,a1,a0
80005a2e:	4581                	li	a1,0
80005a30:	b7c9                	j	800059f2 <__fixdfdi+0x52>
80005a32:	4501                	li	a0,0
80005a34:	4581                	li	a1,0
80005a36:	8082                	ret

80005a38 <__floatdidf>:
80005a38:	1101                	add	sp,sp,-32
80005a3a:	ce06                	sw	ra,28(sp)
80005a3c:	cc22                	sw	s0,24(sp)
80005a3e:	ca26                	sw	s1,20(sp)
80005a40:	c84a                	sw	s2,16(sp)
80005a42:	c64e                	sw	s3,12(sp)
80005a44:	c452                	sw	s4,8(sp)
80005a46:	c256                	sw	s5,4(sp)
80005a48:	c05a                	sw	s6,0(sp)
80005a4a:	00b567b3          	or	a5,a0,a1
80005a4e:	12078763          	beqz	a5,80005b7c <__floatdidf+0x144>
80005a52:	842a                	mv	s0,a0
80005a54:	84ae                	mv	s1,a1
80005a56:	01f5da13          	srl	s4,a1,0x1f
80005a5a:	0005d963          	bgez	a1,80005a6c <__floatdidf+0x34>
80005a5e:	00a037b3          	snez	a5,a0
80005a62:	40b004b3          	neg	s1,a1
80005a66:	8c9d                	sub	s1,s1,a5
80005a68:	40a00433          	neg	s0,a0
80005a6c:	87a6                	mv	a5,s1
80005a6e:	60049913          	clz	s2,s1
80005a72:	e489                	bnez	s1,80005a7c <__floatdidf+0x44>
80005a74:	60041913          	clz	s2,s0
80005a78:	02090913          	add	s2,s2,32
80005a7c:	43e00993          	li	s3,1086
80005a80:	412989b3          	sub	s3,s3,s2
80005a84:	43300713          	li	a4,1075
80005a88:	07374063          	blt	a4,s3,80005ae8 <__floatdidf+0xb0>
80005a8c:	472d                	li	a4,11
80005a8e:	0ee90c63          	beq	s2,a4,80005b86 <__floatdidf+0x14e>
80005a92:	02a00793          	li	a5,42
80005a96:	0527c363          	blt	a5,s2,80005adc <__floatdidf+0xa4>
80005a9a:	02b00793          	li	a5,43
80005a9e:	ff590713          	add	a4,s2,-11
80005aa2:	412787b3          	sub	a5,a5,s2
80005aa6:	00f457b3          	srl	a5,s0,a5
80005aaa:	00e494b3          	sll	s1,s1,a4
80005aae:	8fc5                	or	a5,a5,s1
80005ab0:	00e41433          	sll	s0,s0,a4
80005ab4:	07b2                	sll	a5,a5,0xc
80005ab6:	40f2                	lw	ra,28(sp)
80005ab8:	83b1                	srl	a5,a5,0xc
80005aba:	8522                	mv	a0,s0
80005abc:	09d2                	sll	s3,s3,0x14
80005abe:	4462                	lw	s0,24(sp)
80005ac0:	00f9e9b3          	or	s3,s3,a5
80005ac4:	0a7e                	sll	s4,s4,0x1f
80005ac6:	0149e7b3          	or	a5,s3,s4
80005aca:	44d2                	lw	s1,20(sp)
80005acc:	4942                	lw	s2,16(sp)
80005ace:	49b2                	lw	s3,12(sp)
80005ad0:	4a22                	lw	s4,8(sp)
80005ad2:	4a92                	lw	s5,4(sp)
80005ad4:	4b02                	lw	s6,0(sp)
80005ad6:	85be                	mv	a1,a5
80005ad8:	6105                	add	sp,sp,32
80005ada:	8082                	ret
80005adc:	fd590793          	add	a5,s2,-43
80005ae0:	00f417b3          	sll	a5,s0,a5
80005ae4:	4401                	li	s0,0
80005ae6:	b7f9                	j	80005ab4 <__floatdidf+0x7c>
80005ae8:	43600793          	li	a5,1078
80005aec:	0337d663          	bge	a5,s3,80005b18 <__floatdidf+0xe0>
80005af0:	4621                	li	a2,8
80005af2:	41260633          	sub	a2,a2,s2
80005af6:	8522                	mv	a0,s0
80005af8:	85a6                	mv	a1,s1
80005afa:	2115                	jal	80005f1e <__lshrdi3>
80005afc:	8b2a                	mv	s6,a0
80005afe:	8aae                	mv	s5,a1
80005b00:	8522                	mv	a0,s0
80005b02:	85a6                	mv	a1,s1
80005b04:	03890613          	add	a2,s2,56
80005b08:	293d                	jal	80005f46 <__ashldi3>
80005b0a:	00b56433          	or	s0,a0,a1
80005b0e:	00803433          	snez	s0,s0
80005b12:	01646433          	or	s0,s0,s6
80005b16:	84d6                	mv	s1,s5
80005b18:	47a1                	li	a5,8
80005b1a:	0127df63          	bge	a5,s2,80005b38 <__floatdidf+0x100>
80005b1e:	02800793          	li	a5,40
80005b22:	ff890713          	add	a4,s2,-8
80005b26:	412787b3          	sub	a5,a5,s2
80005b2a:	00f457b3          	srl	a5,s0,a5
80005b2e:	00e494b3          	sll	s1,s1,a4
80005b32:	8cdd                	or	s1,s1,a5
80005b34:	00e41433          	sll	s0,s0,a4
80005b38:	fff4f793          	and	a5,s1,-1
80005b3c:	00747713          	and	a4,s0,7
80005b40:	49779793          	bclr	a5,a5,0x17
80005b44:	cf01                	beqz	a4,80005b5c <__floatdidf+0x124>
80005b46:	00f47713          	and	a4,s0,15
80005b4a:	4691                	li	a3,4
80005b4c:	00d70863          	beq	a4,a3,80005b5c <__floatdidf+0x124>
80005b50:	00440713          	add	a4,s0,4
80005b54:	008736b3          	sltu	a3,a4,s0
80005b58:	97b6                	add	a5,a5,a3
80005b5a:	843a                	mv	s0,a4
80005b5c:	00879713          	sll	a4,a5,0x8
80005b60:	00075863          	bgez	a4,80005b70 <__floatdidf+0x138>
80005b64:	43f00993          	li	s3,1087
80005b68:	412989b3          	sub	s3,s3,s2
80005b6c:	49779793          	bclr	a5,a5,0x17
80005b70:	01d79713          	sll	a4,a5,0x1d
80005b74:	800d                	srl	s0,s0,0x3
80005b76:	8c59                	or	s0,s0,a4
80005b78:	838d                	srl	a5,a5,0x3
80005b7a:	bf2d                	j	80005ab4 <__floatdidf+0x7c>
80005b7c:	4781                	li	a5,0
80005b7e:	4401                	li	s0,0
80005b80:	4981                	li	s3,0
80005b82:	4a01                	li	s4,0
80005b84:	bf05                	j	80005ab4 <__floatdidf+0x7c>
80005b86:	43300993          	li	s3,1075
80005b8a:	b72d                	j	80005ab4 <__floatdidf+0x7c>

80005b8c <__extenddftf2>:
80005b8c:	01465713          	srl	a4,a2,0x14
80005b90:	00c61793          	sll	a5,a2,0xc
80005b94:	7ff77713          	and	a4,a4,2047
80005b98:	1101                	add	sp,sp,-32
80005b9a:	83b1                	srl	a5,a5,0xc
80005b9c:	00170693          	add	a3,a4,1
80005ba0:	c82e                	sw	a1,16(sp)
80005ba2:	ca3e                	sw	a5,20(sp)
80005ba4:	ce02                	sw	zero,28(sp)
80005ba6:	cc02                	sw	zero,24(sp)
80005ba8:	7fe6f693          	and	a3,a3,2046
80005bac:	827d                	srl	a2,a2,0x1f
80005bae:	c2b9                	beqz	a3,80005bf4 <__extenddftf2+0x68>
80005bb0:	6691                	lui	a3,0x4
80005bb2:	c0068693          	add	a3,a3,-1024 # 3c00 <__ramfunc_end__+0x1a68>
80005bb6:	9736                	add	a4,a4,a3
80005bb8:	0047d693          	srl	a3,a5,0x4
80005bbc:	ce36                	sw	a3,28(sp)
80005bbe:	07f2                	sll	a5,a5,0x1c
80005bc0:	0045d693          	srl	a3,a1,0x4
80005bc4:	8fd5                	or	a5,a5,a3
80005bc6:	05f2                	sll	a1,a1,0x1c
80005bc8:	cc3e                	sw	a5,24(sp)
80005bca:	ca2e                	sw	a1,20(sp)
80005bcc:	c802                	sw	zero,16(sp)
80005bce:	47f2                	lw	a5,28(sp)
80005bd0:	4842                	lw	a6,16(sp)
80005bd2:	45d2                	lw	a1,20(sp)
80005bd4:	00f11623          	sh	a5,12(sp)
80005bd8:	00f61793          	sll	a5,a2,0xf
80005bdc:	8fd9                	or	a5,a5,a4
80005bde:	00f11723          	sh	a5,14(sp)
80005be2:	46e2                	lw	a3,24(sp)
80005be4:	47b2                	lw	a5,12(sp)
80005be6:	01052023          	sw	a6,0(a0)
80005bea:	c14c                	sw	a1,4(a0)
80005bec:	c514                	sw	a3,8(a0)
80005bee:	c55c                	sw	a5,12(a0)
80005bf0:	6105                	add	sp,sp,32
80005bf2:	8082                	ret
80005bf4:	00b7e6b3          	or	a3,a5,a1
80005bf8:	e371                	bnez	a4,80005cbc <__extenddftf2+0x130>
80005bfa:	daf1                	beqz	a3,80005bce <__extenddftf2+0x42>
80005bfc:	c7a1                	beqz	a5,80005c44 <__extenddftf2+0xb8>
80005bfe:	60079793          	clz	a5,a5
80005c02:	03178693          	add	a3,a5,49
80005c06:	4056d813          	sra	a6,a3,0x5
80005c0a:	8afd                	and	a3,a3,31
80005c0c:	c2a9                	beqz	a3,80005c4e <__extenddftf2+0xc2>
80005c0e:	58f1                	li	a7,-4
80005c10:	031808b3          	mul	a7,a6,a7
80005c14:	02000e13          	li	t3,32
80005c18:	01010f13          	add	t5,sp,16
80005c1c:	40de0e33          	sub	t3,t3,a3
80005c20:	00c88713          	add	a4,a7,12
80005c24:	977a                	add	a4,a4,t5
80005c26:	411008b3          	neg	a7,a7
80005c2a:	06ef1963          	bne	t5,a4,80005c9c <__extenddftf2+0x110>
80005c2e:	02010893          	add	a7,sp,32
80005c32:	00d596b3          	sll	a3,a1,a3
80005c36:	fff80713          	add	a4,a6,-1
80005c3a:	21184833          	sh2add	a6,a6,a7
80005c3e:	fed82823          	sw	a3,-16(a6)
80005c42:	a03d                	j	80005c70 <__extenddftf2+0xe4>
80005c44:	60069693          	clz	a3,a3
80005c48:	02068793          	add	a5,a3,32
80005c4c:	bf5d                	j	80005c02 <__extenddftf2+0x76>
80005c4e:	55f1                	li	a1,-4
80005c50:	02b805b3          	mul	a1,a6,a1
80005c54:	0878                	add	a4,sp,28
80005c56:	468d                	li	a3,3
80005c58:	00b708b3          	add	a7,a4,a1
80005c5c:	0008a883          	lw	a7,0(a7)
80005c60:	16fd                	add	a3,a3,-1
80005c62:	1771                	add	a4,a4,-4
80005c64:	01172223          	sw	a7,4(a4)
80005c68:	ff06d8e3          	bge	a3,a6,80005c58 <__extenddftf2+0xcc>
80005c6c:	fff80713          	add	a4,a6,-1
80005c70:	0705                	add	a4,a4,1
80005c72:	070a                	sll	a4,a4,0x2
80005c74:	45a1                	li	a1,8
80005c76:	0814                	add	a3,sp,16
80005c78:	00b76863          	bltu	a4,a1,80005c88 <__extenddftf2+0xfc>
80005c7c:	0006a023          	sw	zero,0(a3)
80005c80:	0006a223          	sw	zero,4(a3)
80005c84:	1761                	add	a4,a4,-8
80005c86:	0834                	add	a3,sp,24
80005c88:	4591                	li	a1,4
80005c8a:	00b76463          	bltu	a4,a1,80005c92 <__extenddftf2+0x106>
80005c8e:	0006a023          	sw	zero,0(a3)
80005c92:	6711                	lui	a4,0x4
80005c94:	c0c70713          	add	a4,a4,-1012 # 3c0c <__ramfunc_end__+0x1a74>
80005c98:	8f1d                	sub	a4,a4,a5
80005c9a:	bf15                	j	80005bce <__extenddftf2+0x42>
80005c9c:	00072303          	lw	t1,0(a4)
80005ca0:	ffc72e83          	lw	t4,-4(a4)
80005ca4:	01170fb3          	add	t6,a4,a7
80005ca8:	00d31333          	sll	t1,t1,a3
80005cac:	01cedeb3          	srl	t4,t4,t3
80005cb0:	01d36333          	or	t1,t1,t4
80005cb4:	006fa023          	sw	t1,0(t6)
80005cb8:	1771                	add	a4,a4,-4
80005cba:	bf85                	j	80005c2a <__extenddftf2+0x9e>
80005cbc:	ce91                	beqz	a3,80005cd8 <__extenddftf2+0x14c>
80005cbe:	01c79713          	sll	a4,a5,0x1c
80005cc2:	0045d693          	srl	a3,a1,0x4
80005cc6:	8f55                	or	a4,a4,a3
80005cc8:	05f2                	sll	a1,a1,0x1c
80005cca:	8391                	srl	a5,a5,0x4
80005ccc:	28f79793          	bset	a5,a5,0xf
80005cd0:	cc3a                	sw	a4,24(sp)
80005cd2:	ca2e                	sw	a1,20(sp)
80005cd4:	c802                	sw	zero,16(sp)
80005cd6:	ce3e                	sw	a5,28(sp)
80005cd8:	6721                	lui	a4,0x8
80005cda:	177d                	add	a4,a4,-1 # 7fff <HEAP_SIZE+0x3fff>
80005cdc:	bdcd                	j	80005bce <__extenddftf2+0x42>

80005cde <__trunctfdf2>:
80005cde:	454c                	lw	a1,12(a0)
80005ce0:	4154                	lw	a3,4(a0)
80005ce2:	4518                	lw	a4,8(a0)
80005ce4:	411c                	lw	a5,0(a0)
80005ce6:	1101                	add	sp,sp,-32
80005ce8:	0810                	add	a2,sp,16
80005cea:	c236                	sw	a3,4(sp)
80005cec:	c43a                	sw	a4,8(sp)
80005cee:	ca36                	sw	a3,20(sp)
80005cf0:	cc3a                	sw	a4,24(sp)
80005cf2:	00159693          	sll	a3,a1,0x1
80005cf6:	0805c733          	zext.h	a4,a1
80005cfa:	c62e                	sw	a1,12(sp)
80005cfc:	ce3a                	sw	a4,28(sp)
80005cfe:	c03e                	sw	a5,0(sp)
80005d00:	c83e                	sw	a5,16(sp)
80005d02:	82c5                	srl	a3,a3,0x11
80005d04:	81fd                	srl	a1,a1,0x1f
80005d06:	00410893          	add	a7,sp,4
80005d0a:	8732                	mv	a4,a2
80005d0c:	8e32                	mv	t3,a2
80005d0e:	4748                	lw	a0,12(a4)
80005d10:	00872803          	lw	a6,8(a4)
80005d14:	1771                	add	a4,a4,-4
80005d16:	050e                	sll	a0,a0,0x3
80005d18:	01d85813          	srl	a6,a6,0x1d
80005d1c:	01056533          	or	a0,a0,a6
80005d20:	cb08                	sw	a0,16(a4)
80005d22:	ff1716e3          	bne	a4,a7,80005d0e <__trunctfdf2+0x30>
80005d26:	00379513          	sll	a0,a5,0x3
80005d2a:	00168793          	add	a5,a3,1
80005d2e:	01179713          	sll	a4,a5,0x11
80005d32:	c82a                	sw	a0,16(sp)
80005d34:	8349                	srl	a4,a4,0x12
80005d36:	14070663          	beqz	a4,80005e82 <__trunctfdf2+0x1a4>
80005d3a:	77f1                	lui	a5,0xffffc
80005d3c:	40078793          	add	a5,a5,1024 # ffffc400 <__fast_ram_init_load_addr__+0x7ffdbb70>
80005d40:	96be                	add	a3,a3,a5
80005d42:	7fe00793          	li	a5,2046
80005d46:	16d7cb63          	blt	a5,a3,80005ebc <__trunctfdf2+0x1de>
80005d4a:	04d05563          	blez	a3,80005d94 <__trunctfdf2+0xb6>
80005d4e:	4662                	lw	a2,24(sp)
80005d50:	47f2                	lw	a5,28(sp)
80005d52:	4752                	lw	a4,20(sp)
80005d54:	01c65813          	srl	a6,a2,0x1c
80005d58:	0792                	sll	a5,a5,0x4
80005d5a:	0107e7b3          	or	a5,a5,a6
80005d5e:	ca3e                	sw	a5,20(sp)
80005d60:	00471793          	sll	a5,a4,0x4
80005d64:	8fc9                	or	a5,a5,a0
80005d66:	8371                	srl	a4,a4,0x1c
80005d68:	0612                	sll	a2,a2,0x4
80005d6a:	00f037b3          	snez	a5,a5
80005d6e:	8f51                	or	a4,a4,a2
80005d70:	8fd9                	or	a5,a5,a4
80005d72:	4752                	lw	a4,20(sp)
80005d74:	0077f613          	and	a2,a5,7
80005d78:	14060663          	beqz	a2,80005ec4 <__trunctfdf2+0x1e6>
80005d7c:	00f7f613          	and	a2,a5,15
80005d80:	4511                	li	a0,4
80005d82:	14a60163          	beq	a2,a0,80005ec4 <__trunctfdf2+0x1e6>
80005d86:	00478613          	add	a2,a5,4
80005d8a:	00f63533          	sltu	a0,a2,a5
80005d8e:	972a                	add	a4,a4,a0
80005d90:	87b2                	mv	a5,a2
80005d92:	aa0d                	j	80005ec4 <__trunctfdf2+0x1e6>
80005d94:	fcc00793          	li	a5,-52
80005d98:	00f6d663          	bge	a3,a5,80005da4 <__trunctfdf2+0xc6>
80005d9c:	ca02                	sw	zero,20(sp)
80005d9e:	4785                	li	a5,1
80005da0:	4681                	li	a3,0
80005da2:	bfc1                	j	80005d72 <__trunctfdf2+0x94>
80005da4:	4ef2                	lw	t4,28(sp)
80005da6:	03d00793          	li	a5,61
80005daa:	8f95                	sub	a5,a5,a3
80005dac:	4057d713          	sra	a4,a5,0x5
80005db0:	01f7f693          	and	a3,a5,31
80005db4:	293e9e93          	bset	t4,t4,0x13
80005db8:	00271813          	sll	a6,a4,0x2
80005dbc:	ce76                	sw	t4,28(sp)
80005dbe:	8532                	mv	a0,a2
80005dc0:	4781                	li	a5,0
80005dc2:	20c748b3          	sh2add	a7,a4,a2
80005dc6:	00052303          	lw	t1,0(a0)
80005dca:	0511                	add	a0,a0,4
80005dcc:	0067e7b3          	or	a5,a5,t1
80005dd0:	fea89be3          	bne	a7,a0,80005dc6 <__trunctfdf2+0xe8>
80005dd4:	450d                	li	a0,3
80005dd6:	8d19                	sub	a0,a0,a4
80005dd8:	ee99                	bnez	a3,80005df6 <__trunctfdf2+0x118>
80005dda:	010608b3          	add	a7,a2,a6
80005dde:	0008a883          	lw	a7,0(a7)
80005de2:	0685                	add	a3,a3,1
80005de4:	01162023          	sw	a7,0(a2)
80005de8:	0611                	add	a2,a2,4
80005dea:	fed558e3          	bge	a0,a3,80005dda <__trunctfdf2+0xfc>
80005dee:	4691                	li	a3,4
80005df0:	40e68733          	sub	a4,a3,a4
80005df4:	a835                	j	80005e30 <__trunctfdf2+0x152>
80005df6:	02080893          	add	a7,a6,32
80005dfa:	988a                	add	a7,a7,sp
80005dfc:	ff08a883          	lw	a7,-16(a7)
80005e00:	02000313          	li	t1,32
80005e04:	40d30333          	sub	t1,t1,a3
80005e08:	006898b3          	sll	a7,a7,t1
80005e0c:	9642                	add	a2,a2,a6
80005e0e:	0117e7b3          	or	a5,a5,a7
80005e12:	41000833          	neg	a6,a6
80005e16:	4f01                	li	t5,0
80005e18:	04af4463          	blt	t5,a0,80005e60 <__trunctfdf2+0x182>
80005e1c:	4611                	li	a2,4
80005e1e:	40e60733          	sub	a4,a2,a4
80005e22:	00ded6b3          	srl	a3,t4,a3
80005e26:	1010                	add	a2,sp,32
80005e28:	20c54533          	sh2add	a0,a0,a2
80005e2c:	fed52823          	sw	a3,-16(a0)
80005e30:	4691                	li	a3,4
80005e32:	8e99                	sub	a3,a3,a4
80005e34:	068a                	sll	a3,a3,0x2
80005e36:	4621                	li	a2,8
80005e38:	21c74733          	sh2add	a4,a4,t3
80005e3c:	00c6e863          	bltu	a3,a2,80005e4c <__trunctfdf2+0x16e>
80005e40:	00072023          	sw	zero,0(a4)
80005e44:	00072223          	sw	zero,4(a4)
80005e48:	16e1                	add	a3,a3,-8
80005e4a:	0721                	add	a4,a4,8
80005e4c:	4611                	li	a2,4
80005e4e:	00c6e463          	bltu	a3,a2,80005e56 <__trunctfdf2+0x178>
80005e52:	00072023          	sw	zero,0(a4)
80005e56:	4742                	lw	a4,16(sp)
80005e58:	00f037b3          	snez	a5,a5
80005e5c:	8fd9                	or	a5,a5,a4
80005e5e:	b789                	j	80005da0 <__trunctfdf2+0xc2>
80005e60:	00062883          	lw	a7,0(a2)
80005e64:	00462f83          	lw	t6,4(a2)
80005e68:	010602b3          	add	t0,a2,a6
80005e6c:	00d8d8b3          	srl	a7,a7,a3
80005e70:	006f9fb3          	sll	t6,t6,t1
80005e74:	01f8e8b3          	or	a7,a7,t6
80005e78:	0112a023          	sw	a7,0(t0)
80005e7c:	0f05                	add	t5,t5,1
80005e7e:	0611                	add	a2,a2,4
80005e80:	bf61                	j	80005e18 <__trunctfdf2+0x13a>
80005e82:	4652                	lw	a2,20(sp)
80005e84:	4762                	lw	a4,24(sp)
80005e86:	4872                	lw	a6,28(sp)
80005e88:	00c767b3          	or	a5,a4,a2
80005e8c:	0107e7b3          	or	a5,a5,a6
80005e90:	8fc9                	or	a5,a5,a0
80005e92:	e689                	bnez	a3,80005e9c <__trunctfdf2+0x1be>
80005e94:	00f037b3          	snez	a5,a5
80005e98:	4701                	li	a4,0
80005e9a:	bde9                	j	80005d74 <__trunctfdf2+0x96>
80005e9c:	cfbd                	beqz	a5,80005f1a <__trunctfdf2+0x23c>
80005e9e:	00471793          	sll	a5,a4,0x4
80005ea2:	8271                	srl	a2,a2,0x1c
80005ea4:	8371                	srl	a4,a4,0x1c
80005ea6:	0812                	sll	a6,a6,0x4
80005ea8:	8e5d                	or	a2,a2,a5
80005eaa:	01076733          	or	a4,a4,a6
80005eae:	ff867793          	and	a5,a2,-8
80005eb2:	7ff00693          	li	a3,2047
80005eb6:	29671713          	bset	a4,a4,0x16
80005eba:	bd6d                	j	80005d74 <__trunctfdf2+0x96>
80005ebc:	4701                	li	a4,0
80005ebe:	4781                	li	a5,0
80005ec0:	7ff00693          	li	a3,2047
80005ec4:	00871613          	sll	a2,a4,0x8
80005ec8:	00065b63          	bgez	a2,80005ede <__trunctfdf2+0x200>
80005ecc:	0685                	add	a3,a3,1
80005ece:	7ff00613          	li	a2,2047
80005ed2:	49771713          	bclr	a4,a4,0x17
80005ed6:	00c69463          	bne	a3,a2,80005ede <__trunctfdf2+0x200>
80005eda:	4701                	li	a4,0
80005edc:	4781                	li	a5,0
80005ede:	01d71613          	sll	a2,a4,0x1d
80005ee2:	838d                	srl	a5,a5,0x3
80005ee4:	8fd1                	or	a5,a5,a2
80005ee6:	7ff00613          	li	a2,2047
80005eea:	830d                	srl	a4,a4,0x3
80005eec:	00c69963          	bne	a3,a2,80005efe <__trunctfdf2+0x220>
80005ef0:	8fd9                	or	a5,a5,a4
80005ef2:	4701                	li	a4,0
80005ef4:	c789                	beqz	a5,80005efe <__trunctfdf2+0x220>
80005ef6:	00080737          	lui	a4,0x80
80005efa:	4781                	li	a5,0
80005efc:	4581                	li	a1,0
80005efe:	06d2                	sll	a3,a3,0x14
80005f00:	7ff00637          	lui	a2,0x7ff00
80005f04:	0732                	sll	a4,a4,0xc
80005f06:	8331                	srl	a4,a4,0xc
80005f08:	8ef1                	and	a3,a3,a2
80005f0a:	05fe                	sll	a1,a1,0x1f
80005f0c:	8ed9                	or	a3,a3,a4
80005f0e:	00b6e733          	or	a4,a3,a1
80005f12:	853e                	mv	a0,a5
80005f14:	85ba                	mv	a1,a4
80005f16:	6105                	add	sp,sp,32
80005f18:	8082                	ret
80005f1a:	4701                	li	a4,0
80005f1c:	b755                	j	80005ec0 <__trunctfdf2+0x1e2>

80005f1e <__lshrdi3>:
80005f1e:	ca19                	beqz	a2,80005f34 <__lshrdi3+0x16>
80005f20:	02000793          	li	a5,32
80005f24:	8f91                	sub	a5,a5,a2
80005f26:	00f04863          	bgtz	a5,80005f36 <__lshrdi3+0x18>
80005f2a:	1601                	add	a2,a2,-32 # 7fefffe0 <__noncacheable_end__+0x7ecbffe0>
80005f2c:	00c5d533          	srl	a0,a1,a2
80005f30:	4701                	li	a4,0
80005f32:	85ba                	mv	a1,a4
80005f34:	8082                	ret
80005f36:	00c5d733          	srl	a4,a1,a2
80005f3a:	00c55533          	srl	a0,a0,a2
80005f3e:	00f595b3          	sll	a1,a1,a5
80005f42:	8d4d                	or	a0,a0,a1
80005f44:	b7fd                	j	80005f32 <__lshrdi3+0x14>

80005f46 <__ashldi3>:
80005f46:	ca19                	beqz	a2,80005f5c <__ashldi3+0x16>
80005f48:	02000793          	li	a5,32
80005f4c:	8f91                	sub	a5,a5,a2
80005f4e:	00f04863          	bgtz	a5,80005f5e <__ashldi3+0x18>
80005f52:	1601                	add	a2,a2,-32
80005f54:	00c515b3          	sll	a1,a0,a2
80005f58:	4701                	li	a4,0
80005f5a:	853a                	mv	a0,a4
80005f5c:	8082                	ret
80005f5e:	00c51733          	sll	a4,a0,a2
80005f62:	00c595b3          	sll	a1,a1,a2
80005f66:	00f55533          	srl	a0,a0,a5
80005f6a:	8dc9                	or	a1,a1,a0
80005f6c:	b7fd                	j	80005f5a <__ashldi3+0x14>

80005f6e <main>:
#include "hpm_l1c_drv.h"

#include "gw_hal_rs485.h"

int main(void)
{
80005f6e:	1101                	add	sp,sp,-32
80005f70:	ce06                	sw	ra,28(sp)
    hpm_stat_t stat;
    board_init();
80005f72:	23b000ef          	jal	800069ac <board_init>
    board_init_ethercat(HPM_ESC); /* init ESC function pins */
80005f76:	f1700537          	lui	a0,0xf1700
80005f7a:	619000ef          	jal	80006d92 <board_init_ethercat>
    board_init_switch_led();      /* init switch and led for ECAT display */
80005f7e:	64f000ef          	jal	80006dcc <board_init_switch_led>
    printf("EtherCAT IO sample\n");
80005f82:	8001c7b7          	lui	a5,0x8001c
80005f86:	d1478513          	add	a0,a5,-748 # 8001bd14 <_lseek+0x2c>
80005f8a:	7f5110ef          	jal	80017f7e <iprintf>

    /* hardware init */
    stat = ecat_hardware_init(HPM_ESC);
80005f8e:	f1700537          	lui	a0,0xf1700
80005f92:	50d0b0ef          	jal	80011c9e <ecat_hardware_init>
80005f96:	c62a                	sw	a0,12(sp)
    if (stat != status_success) {
80005f98:	47b2                	lw	a5,12(sp)
80005f9a:	cb89                	beqz	a5,80005fac <main+0x3e>
        printf("Init ESC peripheral and related devices(EEPROM/PHY) failed!\n");
80005f9c:	8001c7b7          	lui	a5,0x8001c
80005fa0:	d2878513          	add	a0,a5,-728 # 8001bd28 <_lseek+0x40>
80005fa4:	7db110ef          	jal	80017f7e <iprintf>
        return 0;
80005fa8:	4781                	li	a5,0
80005faa:	a8bd                	j	80006028 <main+0xba>
    }

    MainInit(); /* SSC Initilize the stack */
80005fac:	388040ef          	jal	8000a334 <MainInit>

    /* ---------------- 485初始化 ---------------- */
    RS485_Init(9600); 
80005fb0:	6789                	lui	a5,0x2
80005fb2:	58078513          	add	a0,a5,1408 # 2580 <__ramfunc_end__+0x3e8>
80005fb6:	760100ef          	jal	80016716 <RS485_Init>
    /* ---------------- 485初始化 ---------------- */

#if defined(ESC_EEPROM_EMULATION) && ESC_EEPROM_EMULATION
    pAPPL_EEPROM_Read  = ecat_eeprom_emulation_read;
80005fba:	012097b7          	lui	a5,0x1209
80005fbe:	6709                	lui	a4,0x2
80005fc0:	e4c70713          	add	a4,a4,-436 # 1e4c <ecat_eeprom_emulation_read>
80005fc4:	66e7a023          	sw	a4,1632(a5) # 1209660 <pAPPL_EEPROM_Read>
    pAPPL_EEPROM_Write = ecat_eeprom_emulation_write;
80005fc8:	012097b7          	lui	a5,0x1209
80005fcc:	6709                	lui	a4,0x2
80005fce:	f3470713          	add	a4,a4,-204 # 1f34 <ecat_eeprom_emulation_write>
80005fd2:	66e7a223          	sw	a4,1636(a5) # 1209664 <pAPPL_EEPROM_Write>
    pAPPL_EEPROM_Reload = ecat_eeprom_emulation_reload;
80005fd6:	012097b7          	lui	a5,0x1209
80005fda:	6709                	lui	a4,0x2
80005fdc:	f9470713          	add	a4,a4,-108 # 1f94 <ecat_eeprom_emulation_reload>
80005fe0:	66e7a423          	sw	a4,1640(a5) # 1209668 <pAPPL_EEPROM_Reload>
    pAPPL_EEPROM_Store  = ecat_eeprom_emulation_store;
80005fe4:	012097b7          	lui	a5,0x1209
80005fe8:	80012737          	lui	a4,0x80012
80005fec:	2e270713          	add	a4,a4,738 # 800122e2 <ecat_eeprom_emulation_store>
80005ff0:	66e7a623          	sw	a4,1644(a5) # 120966c <pAPPL_EEPROM_Store>
#endif

    /* Create basic mapping */
    APPL_GenerateMapping(&nPdInputSize, &nPdOutputSize);
80005ff4:	012097b7          	lui	a5,0x1209
80005ff8:	6cc78593          	add	a1,a5,1740 # 12096cc <nPdOutputSize>
80005ffc:	012097b7          	lui	a5,0x1209
80006000:	6ca78513          	add	a0,a5,1738 # 12096ca <nPdInputSize>
80006004:	2990c0ef          	jal	80012a9c <APPL_GenerateMapping>

    /* Set stack run flag */
    bRunApplication = TRUE;
80006008:	012097b7          	lui	a5,0x1209
8000600c:	4705                	li	a4,1
8000600e:	64e78e23          	sb	a4,1628(a5) # 120965c <bRunApplication>
    /* Execute the stack */
    while (bRunApplication == TRUE) {
80006012:	a019                	j	80006018 <main+0xaa>
        MainLoop();
80006014:	46e040ef          	jal	8000a482 <MainLoop>
    while (bRunApplication == TRUE) {
80006018:	012097b7          	lui	a5,0x1209
8000601c:	65c7c703          	lbu	a4,1628(a5) # 120965c <bRunApplication>
80006020:	4785                	li	a5,1
80006022:	fef709e3          	beq	a4,a5,80006014 <main+0xa6>
    }

    /* hardware deinit */

    return 0;
80006026:	4781                	li	a5,0
}
80006028:	853e                	mv	a0,a5
8000602a:	40f2                	lw	ra,28(sp)
8000602c:	6105                	add	sp,sp,32
8000602e:	8082                	ret

80006030 <__libc_init_array>:
 * to prevent been instrumented for coverage analysis when GCOV=1 is applied.
 */
/* Iterate over all the init routines.  */
void __libc_init_array(void) __attribute__((no_profile_instrument_function));
void __libc_init_array(void)
{
80006030:	1101                	add	sp,sp,-32
80006032:	ce06                	sw	ra,28(sp)
    uint32_t count;
    uint32_t i;

    count = __preinit_array_end - __preinit_array_start;
80006034:	012017b7          	lui	a5,0x1201
80006038:	03078713          	add	a4,a5,48 # 1201030 <e2p_dummy>
8000603c:	012017b7          	lui	a5,0x1201
80006040:	03078793          	add	a5,a5,48 # 1201030 <e2p_dummy>
80006044:	40f707b3          	sub	a5,a4,a5
80006048:	8789                	sra	a5,a5,0x2
8000604a:	c43e                	sw	a5,8(sp)
    for (i = 0; i < count; i++) {
8000604c:	c602                	sw	zero,12(sp)
8000604e:	a829                	j	80006068 <__libc_init_array+0x38>
        __preinit_array_start[i]();
80006050:	012017b7          	lui	a5,0x1201
80006054:	03078713          	add	a4,a5,48 # 1201030 <e2p_dummy>
80006058:	47b2                	lw	a5,12(sp)
8000605a:	078a                	sll	a5,a5,0x2
8000605c:	97ba                	add	a5,a5,a4
8000605e:	439c                	lw	a5,0(a5)
80006060:	9782                	jalr	a5
    for (i = 0; i < count; i++) {
80006062:	47b2                	lw	a5,12(sp)
80006064:	0785                	add	a5,a5,1
80006066:	c63e                	sw	a5,12(sp)
80006068:	4732                	lw	a4,12(sp)
8000606a:	47a2                	lw	a5,8(sp)
8000606c:	fef762e3          	bltu	a4,a5,80006050 <__libc_init_array+0x20>
    }

    count = __init_array_end - __init_array_start;
80006070:	012017b7          	lui	a5,0x1201
80006074:	03078713          	add	a4,a5,48 # 1201030 <e2p_dummy>
80006078:	012017b7          	lui	a5,0x1201
8000607c:	03078793          	add	a5,a5,48 # 1201030 <e2p_dummy>
80006080:	40f707b3          	sub	a5,a4,a5
80006084:	8789                	sra	a5,a5,0x2
80006086:	c43e                	sw	a5,8(sp)
    for (i = 0; i < count; i++) {
80006088:	c602                	sw	zero,12(sp)
8000608a:	a829                	j	800060a4 <__libc_init_array+0x74>
        __init_array_start[i]();
8000608c:	012017b7          	lui	a5,0x1201
80006090:	03078713          	add	a4,a5,48 # 1201030 <e2p_dummy>
80006094:	47b2                	lw	a5,12(sp)
80006096:	078a                	sll	a5,a5,0x2
80006098:	97ba                	add	a5,a5,a4
8000609a:	439c                	lw	a5,0(a5)
8000609c:	9782                	jalr	a5
    for (i = 0; i < count; i++) {
8000609e:	47b2                	lw	a5,12(sp)
800060a0:	0785                	add	a5,a5,1
800060a2:	c63e                	sw	a5,12(sp)
800060a4:	4732                	lw	a4,12(sp)
800060a6:	47a2                	lw	a5,8(sp)
800060a8:	fef762e3          	bltu	a4,a5,8000608c <__libc_init_array+0x5c>
    }
}
800060ac:	0001                	nop
800060ae:	0001                	nop
800060b0:	40f2                	lw	ra,28(sp)
800060b2:	6105                	add	sp,sp,32
800060b4:	8082                	ret

800060b6 <_clean_up>:
#define MAIN_ENTRY main
#endif
extern int MAIN_ENTRY(void);

__attribute__((weak)) void _clean_up(void)
{
800060b6:	7139                	add	sp,sp,-64
    clear_csr(CSR_MIE, CSR_MIE_MEIE_MASK);
800060b8:	28b01793          	bset	a5,zero,0xb
800060bc:	3047b073          	csrc	mie,a5
}
800060c0:	0001                	nop
800060c2:	da02                	sw	zero,52(sp)
800060c4:	d802                	sw	zero,48(sp)
800060c6:	e40007b7          	lui	a5,0xe4000
800060ca:	d63e                	sw	a5,44(sp)
800060cc:	57d2                	lw	a5,52(sp)
800060ce:	d43e                	sw	a5,40(sp)
800060d0:	57c2                	lw	a5,48(sp)
800060d2:	d23e                	sw	a5,36(sp)
            (target << HPM_PLIC_THRESHOLD_SHIFT_PER_TARGET));
800060d4:	57a2                	lw	a5,40(sp)
800060d6:	00c79713          	sll	a4,a5,0xc
            HPM_PLIC_THRESHOLD_OFFSET +
800060da:	57b2                	lw	a5,44(sp)
800060dc:	973e                	add	a4,a4,a5
800060de:	002007b7          	lui	a5,0x200
800060e2:	97ba                	add	a5,a5,a4
    volatile uint32_t *threshold_ptr = (volatile uint32_t *)(base +
800060e4:	d03e                	sw	a5,32(sp)
    *threshold_ptr = threshold;
800060e6:	5782                	lw	a5,32(sp)
800060e8:	5712                	lw	a4,36(sp)
800060ea:	c398                	sw	a4,0(a5)
}
800060ec:	0001                	nop
 * @param[in] threshold Threshold of IRQ can be serviced
 */
ATTR_ALWAYS_INLINE static inline void intc_set_threshold(uint32_t target, uint32_t threshold)
{
    __plic_set_threshold(HPM_PLIC_BASE, target, threshold);
}
800060ee:	0001                	nop
    /* clean up plic, it will help while debugging */
    disable_irq_from_intc();
    intc_m_set_threshold(0);
    for (uint32_t irq = 0; irq < 128; irq++) {
800060f0:	de02                	sw	zero,60(sp)
800060f2:	a82d                	j	8000612c <_clean_up+0x76>
800060f4:	ce02                	sw	zero,28(sp)
800060f6:	57f2                	lw	a5,60(sp)
800060f8:	cc3e                	sw	a5,24(sp)
800060fa:	e40007b7          	lui	a5,0xe4000
800060fe:	ca3e                	sw	a5,20(sp)
80006100:	47f2                	lw	a5,28(sp)
80006102:	c83e                	sw	a5,16(sp)
80006104:	47e2                	lw	a5,24(sp)
80006106:	c63e                	sw	a5,12(sp)
            (target << HPM_PLIC_CLAIM_SHIFT_PER_TARGET));
80006108:	47c2                	lw	a5,16(sp)
8000610a:	00c79713          	sll	a4,a5,0xc
            HPM_PLIC_CLAIM_OFFSET +
8000610e:	47d2                	lw	a5,20(sp)
80006110:	973e                	add	a4,a4,a5
80006112:	002007b7          	lui	a5,0x200
80006116:	0791                	add	a5,a5,4 # 200004 <__fast_ram_bss_end__+0x4>
80006118:	97ba                	add	a5,a5,a4
    volatile uint32_t *claim_addr = (volatile uint32_t *)(base +
8000611a:	c43e                	sw	a5,8(sp)
    *claim_addr = irq;
8000611c:	47a2                	lw	a5,8(sp)
8000611e:	4732                	lw	a4,12(sp)
80006120:	c398                	sw	a4,0(a5)
}
80006122:	0001                	nop
 *
 */
ATTR_ALWAYS_INLINE static inline void intc_complete_irq(uint32_t target, uint32_t irq)
{
    __plic_complete_irq(HPM_PLIC_BASE, target, irq);
}
80006124:	0001                	nop
80006126:	57f2                	lw	a5,60(sp)
80006128:	0785                	add	a5,a5,1
8000612a:	de3e                	sw	a5,60(sp)
8000612c:	5772                	lw	a4,60(sp)
8000612e:	07f00793          	li	a5,127
80006132:	fce7f1e3          	bgeu	a5,a4,800060f4 <_clean_up+0x3e>
        intc_m_complete_irq(irq);
    }
    /* clear any bits left in plic enable register */
    for (uint32_t i = 0; i < 4; i++) {
80006136:	dc02                	sw	zero,56(sp)
80006138:	a821                	j	80006150 <_clean_up+0x9a>
        *(volatile uint32_t *)(HPM_PLIC_BASE + HPM_PLIC_ENABLE_OFFSET + (i << 2)) = 0;
8000613a:	57e2                	lw	a5,56(sp)
8000613c:	00279713          	sll	a4,a5,0x2
80006140:	e40027b7          	lui	a5,0xe4002
80006144:	97ba                	add	a5,a5,a4
80006146:	0007a023          	sw	zero,0(a5) # e4002000 <__fast_ram_init_load_addr__+0x63fe1770>
    for (uint32_t i = 0; i < 4; i++) {
8000614a:	57e2                	lw	a5,56(sp)
8000614c:	0785                	add	a5,a5,1
8000614e:	dc3e                	sw	a5,56(sp)
80006150:	5762                	lw	a4,56(sp)
80006152:	478d                	li	a5,3
80006154:	fee7f3e3          	bgeu	a5,a4,8000613a <_clean_up+0x84>
    }
}
80006158:	0001                	nop
8000615a:	0001                	nop
8000615c:	6121                	add	sp,sp,64
8000615e:	8082                	ret

80006160 <c_startup>:

__attribute__((weak)) void c_startup(void)
{
80006160:	1141                	add	sp,sp,-16
    extern uint8_t __fast_ram_bss_start__[], __fast_ram_bss_end__[];
    extern uint8_t __fast_ram_init_start__[], __fast_ram_init_end__[], __fast_ram_init_load_addr__[];

#if defined(FLASH_XIP) || defined(FLASH_UF2)
    extern uint8_t __vector_ram_start__[], __vector_ram_end__[], __vector_load_addr__[];
    size = __vector_ram_end__ - __vector_ram_start__;
80006162:	6785                	lui	a5,0x1
80006164:	c5878713          	add	a4,a5,-936 # c58 <e2p_print_info>
80006168:	00000793          	li	a5,0
8000616c:	40f707b3          	sub	a5,a4,a5
80006170:	c43e                	sw	a5,8(sp)
    for (i = 0; i < size; i++) {
80006172:	c602                	sw	zero,12(sp)
80006174:	a015                	j	80006198 <c_startup+0x38>
        *(__vector_ram_start__ + i) = *(__vector_load_addr__ + i);
80006176:	4732                	lw	a4,12(sp)
80006178:	800037b7          	lui	a5,0x80003
8000617c:	05078793          	add	a5,a5,80 # 80003050 <__vector_load_addr__>
80006180:	973e                	add	a4,a4,a5
80006182:	46b2                	lw	a3,12(sp)
80006184:	00000793          	li	a5,0
80006188:	97b6                	add	a5,a5,a3
8000618a:	00074703          	lbu	a4,0(a4)
8000618e:	00e78023          	sb	a4,0(a5)
    for (i = 0; i < size; i++) {
80006192:	47b2                	lw	a5,12(sp)
80006194:	0785                	add	a5,a5,1
80006196:	c63e                	sw	a5,12(sp)
80006198:	4732                	lw	a4,12(sp)
8000619a:	47a2                	lw	a5,8(sp)
8000619c:	fcf76de3          	bltu	a4,a5,80006176 <c_startup+0x16>
    }
#endif

    /* bss section */
    size = __bss_end__ - __bss_start__;
800061a0:	012097b7          	lui	a5,0x1209
800061a4:	79078713          	add	a4,a5,1936 # 1209790 <__bss_end__>
800061a8:	012017b7          	lui	a5,0x1201
800061ac:	03078793          	add	a5,a5,48 # 1201030 <e2p_dummy>
800061b0:	40f707b3          	sub	a5,a4,a5
800061b4:	c43e                	sw	a5,8(sp)
    for (i = 0; i < size; i++) {
800061b6:	c602                	sw	zero,12(sp)
800061b8:	a821                	j	800061d0 <c_startup+0x70>
        *(__bss_start__ + i) = 0;
800061ba:	4732                	lw	a4,12(sp)
800061bc:	012017b7          	lui	a5,0x1201
800061c0:	03078793          	add	a5,a5,48 # 1201030 <e2p_dummy>
800061c4:	97ba                	add	a5,a5,a4
800061c6:	00078023          	sb	zero,0(a5)
    for (i = 0; i < size; i++) {
800061ca:	47b2                	lw	a5,12(sp)
800061cc:	0785                	add	a5,a5,1
800061ce:	c63e                	sw	a5,12(sp)
800061d0:	4732                	lw	a4,12(sp)
800061d2:	47a2                	lw	a5,8(sp)
800061d4:	fef763e3          	bltu	a4,a5,800061ba <c_startup+0x5a>
    }

    /* noncacheable bss section */
    size = __noncacheable_bss_end__ - __noncacheable_bss_start__;
800061d8:	012307b7          	lui	a5,0x1230
800061dc:	00078713          	mv	a4,a5
800061e0:	012307b7          	lui	a5,0x1230
800061e4:	00078793          	mv	a5,a5
800061e8:	40f707b3          	sub	a5,a4,a5
800061ec:	c43e                	sw	a5,8(sp)
    for (i = 0; i < size; i++) {
800061ee:	c602                	sw	zero,12(sp)
800061f0:	a821                	j	80006208 <c_startup+0xa8>
        *(__noncacheable_bss_start__ + i) = 0;
800061f2:	4732                	lw	a4,12(sp)
800061f4:	012307b7          	lui	a5,0x1230
800061f8:	00078793          	mv	a5,a5
800061fc:	97ba                	add	a5,a5,a4
800061fe:	00078023          	sb	zero,0(a5) # 1230000 <__noncacheable_bss_end__>
    for (i = 0; i < size; i++) {
80006202:	47b2                	lw	a5,12(sp)
80006204:	0785                	add	a5,a5,1
80006206:	c63e                	sw	a5,12(sp)
80006208:	4732                	lw	a4,12(sp)
8000620a:	47a2                	lw	a5,8(sp)
8000620c:	fef763e3          	bltu	a4,a5,800061f2 <c_startup+0x92>
    }

    /* fast_ram bss section */
    size = __fast_ram_bss_end__ - __fast_ram_bss_start__;
80006210:	002007b7          	lui	a5,0x200
80006214:	00078713          	mv	a4,a5
80006218:	002007b7          	lui	a5,0x200
8000621c:	00078793          	mv	a5,a5
80006220:	40f707b3          	sub	a5,a4,a5
80006224:	c43e                	sw	a5,8(sp)
    for (i = 0; i < size; i++) {
80006226:	c602                	sw	zero,12(sp)
80006228:	a821                	j	80006240 <c_startup+0xe0>
        *(__fast_ram_bss_start__ + i) = 0;
8000622a:	4732                	lw	a4,12(sp)
8000622c:	002007b7          	lui	a5,0x200
80006230:	00078793          	mv	a5,a5
80006234:	97ba                	add	a5,a5,a4
80006236:	00078023          	sb	zero,0(a5) # 200000 <__fast_ram_bss_end__>
    for (i = 0; i < size; i++) {
8000623a:	47b2                	lw	a5,12(sp)
8000623c:	0785                	add	a5,a5,1
8000623e:	c63e                	sw	a5,12(sp)
80006240:	4732                	lw	a4,12(sp)
80006242:	47a2                	lw	a5,8(sp)
80006244:	fef763e3          	bltu	a4,a5,8000622a <c_startup+0xca>
    }

    /* data section LMA: etext */
    size = __data_end__ - __data_start__;
80006248:	012017b7          	lui	a5,0x1201
8000624c:	03078713          	add	a4,a5,48 # 1201030 <e2p_dummy>
80006250:	012007b7          	lui	a5,0x1200
80006254:	00078793          	mv	a5,a5
80006258:	40f707b3          	sub	a5,a4,a5
8000625c:	c43e                	sw	a5,8(sp)
    for (i = 0; i < size; i++) {
8000625e:	c602                	sw	zero,12(sp)
80006260:	a025                	j	80006288 <c_startup+0x128>
        *(__data_start__ + i) = *(__data_load_addr__ + i);
80006262:	4732                	lw	a4,12(sp)
80006264:	8001e7b7          	lui	a5,0x8001e
80006268:	32078793          	add	a5,a5,800 # 8001e320 <__data_load_addr__>
8000626c:	973e                	add	a4,a4,a5
8000626e:	46b2                	lw	a3,12(sp)
80006270:	012007b7          	lui	a5,0x1200
80006274:	00078793          	mv	a5,a5
80006278:	97b6                	add	a5,a5,a3
8000627a:	00074703          	lbu	a4,0(a4)
8000627e:	00e78023          	sb	a4,0(a5) # 1200000 <ApplicationObjDic>
    for (i = 0; i < size; i++) {
80006282:	47b2                	lw	a5,12(sp)
80006284:	0785                	add	a5,a5,1
80006286:	c63e                	sw	a5,12(sp)
80006288:	4732                	lw	a4,12(sp)
8000628a:	47a2                	lw	a5,8(sp)
8000628c:	fcf76be3          	bltu	a4,a5,80006262 <c_startup+0x102>
    }

    /* ramfunc section LMA: etext + data length */
    size = __ramfunc_end__ - __ramfunc_start__;
80006290:	6789                	lui	a5,0x2
80006292:	19878713          	add	a4,a5,408 # 2198 <__ramfunc_end__>
80006296:	6785                	lui	a5,0x1
80006298:	c5878793          	add	a5,a5,-936 # c58 <e2p_print_info>
8000629c:	40f707b3          	sub	a5,a4,a5
800062a0:	c43e                	sw	a5,8(sp)
    for (i = 0; i < size; i++) {
800062a2:	c602                	sw	zero,12(sp)
800062a4:	a01d                	j	800062ca <c_startup+0x16a>
        *(__ramfunc_start__ + i) = *(__fast_load_addr__ + i);
800062a6:	4732                	lw	a4,12(sp)
800062a8:	8001f7b7          	lui	a5,0x8001f
800062ac:	35078793          	add	a5,a5,848 # 8001f350 <__fast_load_addr__>
800062b0:	973e                	add	a4,a4,a5
800062b2:	46b2                	lw	a3,12(sp)
800062b4:	6785                	lui	a5,0x1
800062b6:	c5878793          	add	a5,a5,-936 # c58 <e2p_print_info>
800062ba:	97b6                	add	a5,a5,a3
800062bc:	00074703          	lbu	a4,0(a4)
800062c0:	00e78023          	sb	a4,0(a5)
    for (i = 0; i < size; i++) {
800062c4:	47b2                	lw	a5,12(sp)
800062c6:	0785                	add	a5,a5,1
800062c8:	c63e                	sw	a5,12(sp)
800062ca:	4732                	lw	a4,12(sp)
800062cc:	47a2                	lw	a5,8(sp)
800062ce:	fcf76ce3          	bltu	a4,a5,800062a6 <c_startup+0x146>
    }

    /* tdata section LMA: etext + data length + ramfunc length */
    size = __tdata_end__ - __tdata_start__;
800062d2:	012017b7          	lui	a5,0x1201
800062d6:	03078713          	add	a4,a5,48 # 1201030 <e2p_dummy>
800062da:	012017b7          	lui	a5,0x1201
800062de:	03078793          	add	a5,a5,48 # 1201030 <e2p_dummy>
800062e2:	40f707b3          	sub	a5,a4,a5
800062e6:	c43e                	sw	a5,8(sp)
    for (i = 0; i < size; i++) {
800062e8:	c602                	sw	zero,12(sp)
800062ea:	a025                	j	80006312 <c_startup+0x1b2>
        *(__tdata_start__ + i) = *(__tdata_load_addr__ + i);
800062ec:	4732                	lw	a4,12(sp)
800062ee:	800217b7          	lui	a5,0x80021
800062f2:	89078793          	add	a5,a5,-1904 # 80020890 <__fast_ram_init_load_addr__>
800062f6:	973e                	add	a4,a4,a5
800062f8:	46b2                	lw	a3,12(sp)
800062fa:	012017b7          	lui	a5,0x1201
800062fe:	03078793          	add	a5,a5,48 # 1201030 <e2p_dummy>
80006302:	97b6                	add	a5,a5,a3
80006304:	00074703          	lbu	a4,0(a4)
80006308:	00e78023          	sb	a4,0(a5)
    for (i = 0; i < size; i++) {
8000630c:	47b2                	lw	a5,12(sp)
8000630e:	0785                	add	a5,a5,1
80006310:	c63e                	sw	a5,12(sp)
80006312:	4732                	lw	a4,12(sp)
80006314:	47a2                	lw	a5,8(sp)
80006316:	fcf76be3          	bltu	a4,a5,800062ec <c_startup+0x18c>
    }

    /* noncacheable init section LMA: etext + data length + ramfunc length + tdata length*/
    size = __noncacheable_init_end__ - __noncacheable_init_start__;
8000631a:	012307b7          	lui	a5,0x1230
8000631e:	00078713          	mv	a4,a5
80006322:	012307b7          	lui	a5,0x1230
80006326:	00078793          	mv	a5,a5
8000632a:	40f707b3          	sub	a5,a4,a5
8000632e:	c43e                	sw	a5,8(sp)
    for (i = 0; i < size; i++) {
80006330:	c602                	sw	zero,12(sp)
80006332:	a025                	j	8000635a <c_startup+0x1fa>
        *(__noncacheable_init_start__ + i) = *(__noncacheable_init_load_addr__ + i);
80006334:	4732                	lw	a4,12(sp)
80006336:	800217b7          	lui	a5,0x80021
8000633a:	89078793          	add	a5,a5,-1904 # 80020890 <__fast_ram_init_load_addr__>
8000633e:	973e                	add	a4,a4,a5
80006340:	46b2                	lw	a3,12(sp)
80006342:	012307b7          	lui	a5,0x1230
80006346:	00078793          	mv	a5,a5
8000634a:	97b6                	add	a5,a5,a3
8000634c:	00074703          	lbu	a4,0(a4)
80006350:	00e78023          	sb	a4,0(a5) # 1230000 <__noncacheable_bss_end__>
    for (i = 0; i < size; i++) {
80006354:	47b2                	lw	a5,12(sp)
80006356:	0785                	add	a5,a5,1
80006358:	c63e                	sw	a5,12(sp)
8000635a:	4732                	lw	a4,12(sp)
8000635c:	47a2                	lw	a5,8(sp)
8000635e:	fcf76be3          	bltu	a4,a5,80006334 <c_startup+0x1d4>
    }

    /* fast_ram init section LMA: etext + data length + ramfunc length + tdata length*/
    size = __fast_ram_init_end__ - __fast_ram_init_start__;
80006362:	002007b7          	lui	a5,0x200
80006366:	00078713          	mv	a4,a5
8000636a:	002007b7          	lui	a5,0x200
8000636e:	00078793          	mv	a5,a5
80006372:	40f707b3          	sub	a5,a4,a5
80006376:	c43e                	sw	a5,8(sp)
    for (i = 0; i < size; i++) {
80006378:	c602                	sw	zero,12(sp)
8000637a:	a025                	j	800063a2 <c_startup+0x242>
        *(__fast_ram_init_start__ + i) = *(__fast_ram_init_load_addr__ + i);
8000637c:	4732                	lw	a4,12(sp)
8000637e:	800217b7          	lui	a5,0x80021
80006382:	89078793          	add	a5,a5,-1904 # 80020890 <__fast_ram_init_load_addr__>
80006386:	973e                	add	a4,a4,a5
80006388:	46b2                	lw	a3,12(sp)
8000638a:	002007b7          	lui	a5,0x200
8000638e:	00078793          	mv	a5,a5
80006392:	97b6                	add	a5,a5,a3
80006394:	00074703          	lbu	a4,0(a4)
80006398:	00e78023          	sb	a4,0(a5) # 200000 <__fast_ram_bss_end__>
    for (i = 0; i < size; i++) {
8000639c:	47b2                	lw	a5,12(sp)
8000639e:	0785                	add	a5,a5,1
800063a0:	c63e                	sw	a5,12(sp)
800063a2:	4732                	lw	a4,12(sp)
800063a4:	47a2                	lw	a5,8(sp)
800063a6:	fcf76be3          	bltu	a4,a5,8000637c <c_startup+0x21c>
    }
}
800063aa:	0001                	nop
800063ac:	0001                	nop
800063ae:	0141                	add	sp,sp,16
800063b0:	8082                	ret

800063b2 <reset_handler>:
        ;
    }
}

__attribute__((weak)) void reset_handler(void)
{
800063b2:	1141                	add	sp,sp,-16
800063b4:	c606                	sw	ra,12(sp)
    fencei();
800063b6:	0000100f          	fence.i

    /* Call platform specific hardware initialization */
    system_init();
800063ba:	2ab000ef          	jal	80006e64 <system_init>

    /* Entry function */
    MAIN_ENTRY();
800063be:	3e45                	jal	80005f6e <main>
}
800063c0:	0001                	nop
800063c2:	40b2                	lw	ra,12(sp)
800063c4:	0141                	add	sp,sp,16
800063c6:	8082                	ret

800063c8 <_init>:
void *__dso_handle = (void *) &__dso_handle;
#endif

__attribute__((weak)) void _init(void)
{
}
800063c8:	0001                	nop
800063ca:	8082                	ret

800063cc <mchtmr_isr>:
}
800063cc:	0001                	nop
800063ce:	8082                	ret

800063d0 <swi_isr>:
}
800063d0:	0001                	nop
800063d2:	8082                	ret

800063d4 <syscall_handler>:
{
800063d4:	1101                	add	sp,sp,-32
800063d6:	ce2a                	sw	a0,28(sp)
800063d8:	cc2e                	sw	a1,24(sp)
800063da:	ca32                	sw	a2,20(sp)
800063dc:	c836                	sw	a3,16(sp)
800063de:	c63a                	sw	a4,12(sp)
}
800063e0:	0001                	nop
800063e2:	6105                	add	sp,sp,32
800063e4:	8082                	ret

800063e6 <exception_handler>:
{
800063e6:	1141                	add	sp,sp,-16
800063e8:	c62a                	sw	a0,12(sp)
800063ea:	c42e                	sw	a1,8(sp)
    switch (cause) {
800063ec:	4732                	lw	a4,12(sp)
800063ee:	47bd                	li	a5,15
800063f0:	00e7ec63          	bltu	a5,a4,80006408 <exception_handler+0x22>
800063f4:	47b2                	lw	a5,12(sp)
800063f6:	00279713          	sll	a4,a5,0x2
800063fa:	8001c7b7          	lui	a5,0x8001c
800063fe:	73c78793          	add	a5,a5,1852 # 8001c73c <__clz_tab+0x100>
80006402:	97ba                	add	a5,a5,a4
80006404:	439c                	lw	a5,0(a5)
80006406:	8782                	jr	a5
        break;
80006408:	0001                	nop
    return epc;
8000640a:	47a2                	lw	a5,8(sp)
}
8000640c:	853e                	mv	a0,a5
8000640e:	0141                	add	sp,sp,16
80006410:	8082                	ret

80006412 <exception_s_handler>:
{
80006412:	1141                	add	sp,sp,-16
80006414:	c62a                	sw	a0,12(sp)
80006416:	c42e                	sw	a1,8(sp)
    return epc;
80006418:	47a2                	lw	a5,8(sp)
}
8000641a:	853e                	mv	a0,a5
8000641c:	0141                	add	sp,sp,16
8000641e:	8082                	ret

80006420 <swi_s_isr>:
}
80006420:	0001                	nop
80006422:	8082                	ret

80006424 <mchtmr_s_isr>:
}
80006424:	0001                	nop
80006426:	8082                	ret

80006428 <l1c_op>:
                                             assert(address % HPM_L1C_CACHELINE_SIZE == 0); \
                                             assert(size % HPM_L1C_CACHELINE_SIZE == 0); \
                                        } while (0)

static void l1c_op(uint8_t opcode, uint32_t address, uint32_t size)
{
80006428:	7179                	add	sp,sp,-48
8000642a:	d622                	sw	s0,44(sp)
8000642c:	87aa                	mv	a5,a0
8000642e:	c42e                	sw	a1,8(sp)
80006430:	c232                	sw	a2,4(sp)
80006432:	00f107a3          	sb	a5,15(sp)
        l1c_cctl_address_cmd(opcode, address + i * HPM_L1C_CACHELINE_SIZE);
        tmp += HPM_L1C_CACHELINE_SIZE;
    }
#else
    register uint32_t next_address;
    next_address = address;
80006436:	4422                	lw	s0,8(sp)
80006438:	ce22                	sw	s0,28(sp)
    (uint32_t)(((x) << HPM_MCCTLBEGINADDR_WAY_SHIFT) & HPM_MCCTLBEGINADDR_WAY_MASK)

/* send IX command */
ATTR_ALWAYS_INLINE static inline void l1c_cctl_address(uint32_t address)
{
    write_csr(CSR_MCCTLBEGINADDR, address);
8000643a:	47f2                	lw	a5,28(sp)
8000643c:	7cb79073          	csrw	0x7cb,a5
}
80006440:	0001                	nop
    l1c_cctl_address(next_address);
    while ((next_address < (address + size)) && (next_address >= address)) {
80006442:	a005                	j	80006462 <l1c_op+0x3a>
80006444:	00f14783          	lbu	a5,15(sp)
80006448:	00f10ba3          	sb	a5,23(sp)

/* send command */
ATTR_ALWAYS_INLINE static inline void l1c_cctl_cmd(uint8_t cmd)
{
    write_csr(CSR_MCCTLCOMMAND, cmd);
8000644c:	01714783          	lbu	a5,23(sp)
80006450:	7cc79073          	csrw	0x7cc,a5
}
80006454:	0001                	nop

ATTR_ALWAYS_INLINE static inline uint32_t l1c_cctl_get_address(void)
{
    return read_csr(CSR_MCCTLBEGINADDR);
80006456:	7cb027f3          	csrr	a5,0x7cb
8000645a:	cc3e                	sw	a5,24(sp)
8000645c:	47e2                	lw	a5,24(sp)
8000645e:	0001                	nop
        l1c_cctl_cmd(opcode);
        next_address = l1c_cctl_get_address();
80006460:	843e                	mv	s0,a5
    while ((next_address < (address + size)) && (next_address >= address)) {
80006462:	4722                	lw	a4,8(sp)
80006464:	4792                	lw	a5,4(sp)
80006466:	97ba                	add	a5,a5,a4
80006468:	00f47563          	bgeu	s0,a5,80006472 <l1c_op+0x4a>
8000646c:	47a2                	lw	a5,8(sp)
8000646e:	fcf47be3          	bgeu	s0,a5,80006444 <l1c_op+0x1c>
    }
#endif
}
80006472:	0001                	nop
80006474:	5432                	lw	s0,44(sp)
80006476:	6145                	add	sp,sp,48
80006478:	8082                	ret

8000647a <l1c_dc_enable>:

void l1c_dc_enable(void)
{
8000647a:	1101                	add	sp,sp,-32
8000647c:	ce06                	sw	ra,28(sp)
    return read_csr(CSR_MCACHE_CTL);
8000647e:	7ca027f3          	csrr	a5,0x7ca
80006482:	c63e                	sw	a5,12(sp)
80006484:	47b2                	lw	a5,12(sp)
80006486:	0001                	nop
    return l1c_get_control() & HPM_MCACHE_CTL_DC_EN_MASK;
80006488:	8b89                	and	a5,a5,2
8000648a:	00f037b3          	snez	a5,a5
8000648e:	0ff7f793          	zext.b	a5,a5
    if (!l1c_dc_is_enabled()) {
80006492:	0017c793          	xor	a5,a5,1
80006496:	0ff7f793          	zext.b	a5,a5
8000649a:	c791                	beqz	a5,800064a6 <l1c_dc_enable+0x2c>
#ifdef L1C_DC_DISABLE_WRITEAROUND_ON_ENABLE
        l1c_dc_disable_writearound();
#else
        l1c_dc_enable_writearound();
8000649c:	20c1                	jal	8000655c <l1c_dc_enable_writearound>
#endif
        set_csr(CSR_MCACHE_CTL, HPM_MCACHE_CTL_DPREF_EN_MASK | HPM_MCACHE_CTL_DC_EN_MASK);
8000649e:	40200793          	li	a5,1026
800064a2:	7ca7a073          	csrs	0x7ca,a5
    }
}
800064a6:	0001                	nop
800064a8:	40f2                	lw	ra,28(sp)
800064aa:	6105                	add	sp,sp,32
800064ac:	8082                	ret

800064ae <l1c_ic_enable>:
        clear_csr(CSR_MCACHE_CTL, HPM_MCACHE_CTL_DC_EN_MASK);
    }
}

void l1c_ic_enable(void)
{
800064ae:	1141                	add	sp,sp,-16
    return read_csr(CSR_MCACHE_CTL);
800064b0:	7ca027f3          	csrr	a5,0x7ca
800064b4:	c63e                	sw	a5,12(sp)
800064b6:	47b2                	lw	a5,12(sp)
800064b8:	0001                	nop
    return l1c_get_control() & HPM_MCACHE_CTL_IC_EN_MASK;
800064ba:	8b85                	and	a5,a5,1
800064bc:	00f037b3          	snez	a5,a5
800064c0:	0ff7f793          	zext.b	a5,a5
    if (!l1c_ic_is_enabled()) {
800064c4:	0017c793          	xor	a5,a5,1
800064c8:	0ff7f793          	zext.b	a5,a5
800064cc:	c789                	beqz	a5,800064d6 <l1c_ic_enable+0x28>
        set_csr(CSR_MCACHE_CTL, HPM_MCACHE_CTL_IPREF_EN_MASK
800064ce:	30100793          	li	a5,769
800064d2:	7ca7a073          	csrs	0x7ca,a5
                              | HPM_MCACHE_CTL_CCTL_SUEN_MASK
                              | HPM_MCACHE_CTL_IC_EN_MASK);
    }
}
800064d6:	0001                	nop
800064d8:	0141                	add	sp,sp,16
800064da:	8082                	ret

800064dc <l1c_dc_invalidate_all>:
{
    __asm("fence.i");
}

void l1c_dc_invalidate_all(void)
{
800064dc:	1141                	add	sp,sp,-16
800064de:	47dd                	li	a5,23
800064e0:	00f107a3          	sb	a5,15(sp)
    write_csr(CSR_MCCTLCOMMAND, cmd);
800064e4:	00f14783          	lbu	a5,15(sp)
800064e8:	7cc79073          	csrw	0x7cc,a5
}
800064ec:	0001                	nop
    l1c_cctl_cmd(HPM_L1C_CCTL_CMD_L1D_INVAL_ALL);
}
800064ee:	0001                	nop
800064f0:	0141                	add	sp,sp,16
800064f2:	8082                	ret

800064f4 <l1c_dc_invalidate>:
    ASSERT_ADDR_SIZE(address, size);
    l1c_op(HPM_L1C_CCTL_CMD_L1D_VA_UNLOCK, address, size);
}

void l1c_dc_invalidate(uint32_t address, uint32_t size)
{
800064f4:	1101                	add	sp,sp,-32
800064f6:	ce06                	sw	ra,28(sp)
800064f8:	c62a                	sw	a0,12(sp)
800064fa:	c42e                	sw	a1,8(sp)
    ASSERT_ADDR_SIZE(address, size);
800064fc:	47b2                	lw	a5,12(sp)
800064fe:	03f7f793          	and	a5,a5,63
80006502:	c38d                	beqz	a5,80006524 <l1c_dc_invalidate+0x30>
80006504:	8001c7b7          	lui	a5,0x8001c
80006508:	d6878693          	add	a3,a5,-664 # 8001bd68 <_lseek+0x80>
8000650c:	8001c7b7          	lui	a5,0x8001c
80006510:	77c78613          	add	a2,a5,1916 # 8001c77c <__func__.5>
80006514:	06900593          	li	a1,105
80006518:	8001c7b7          	lui	a5,0x8001c
8000651c:	d9078513          	add	a0,a5,-624 # 8001bd90 <_lseek+0xa8>
80006520:	71a100ef          	jal	80016c3a <__assert_func>
80006524:	47a2                	lw	a5,8(sp)
80006526:	03f7f793          	and	a5,a5,63
8000652a:	c38d                	beqz	a5,8000654c <l1c_dc_invalidate+0x58>
8000652c:	8001c7b7          	lui	a5,0x8001c
80006530:	dc878693          	add	a3,a5,-568 # 8001bdc8 <_lseek+0xe0>
80006534:	8001c7b7          	lui	a5,0x8001c
80006538:	77c78613          	add	a2,a5,1916 # 8001c77c <__func__.5>
8000653c:	06900593          	li	a1,105
80006540:	8001c7b7          	lui	a5,0x8001c
80006544:	d9078513          	add	a0,a5,-624 # 8001bd90 <_lseek+0xa8>
80006548:	6f2100ef          	jal	80016c3a <__assert_func>
    l1c_op(HPM_L1C_CCTL_CMD_L1D_VA_INVAL, address, size);
8000654c:	4622                	lw	a2,8(sp)
8000654e:	45b2                	lw	a1,12(sp)
80006550:	4501                	li	a0,0
80006552:	3dd9                	jal	80006428 <l1c_op>
}
80006554:	0001                	nop
80006556:	40f2                	lw	ra,28(sp)
80006558:	6105                	add	sp,sp,32
8000655a:	8082                	ret

8000655c <l1c_dc_enable_writearound>:
    l1c_op(HPM_L1C_CCTL_CMD_L1I_VA_UNLOCK, address, size);
}

void l1c_dc_enable_writearound(void)
{
    set_csr(CSR_MCACHE_CTL, HPM_MCACHE_CTL_DC_WAROUND_MASK);
8000655c:	6799                	lui	a5,0x6
8000655e:	7ca7a073          	csrs	0x7ca,a5
}
80006562:	0001                	nop
80006564:	8082                	ret

80006566 <init_uart0_pins>:
#include "hpm_trgm_drv.h"


void init_uart0_pins(void)
{
    HPM_IOC->PAD[IOC_PAD_PA00].FUNC_CTL = IOC_PA00_FUNC_CTL_UART0_TXD;
80006566:	f40407b7          	lui	a5,0xf4040
8000656a:	4709                	li	a4,2
8000656c:	c398                	sw	a4,0(a5)

    HPM_IOC->PAD[IOC_PAD_PA01].FUNC_CTL = IOC_PA01_FUNC_CTL_UART0_RXD;
8000656e:	f40407b7          	lui	a5,0xf4040
80006572:	4709                	li	a4,2
80006574:	c798                	sw	a4,8(a5)
}
80006576:	0001                	nop
80006578:	8082                	ret

8000657a <init_uart4_pins>:

void init_uart4_pins(void)
{
    HPM_IOC->PAD[IOC_PAD_PC16].FUNC_CTL = IOC_PC16_FUNC_CTL_UART4_TXD;
8000657a:	f40407b7          	lui	a5,0xf4040
8000657e:	4709                	li	a4,2
80006580:	28e7a023          	sw	a4,640(a5) # f4040280 <__fast_ram_init_load_addr__+0x7401f9f0>

    HPM_IOC->PAD[IOC_PAD_PC17].FUNC_CTL = IOC_PC17_FUNC_CTL_UART4_RXD;
80006584:	f40407b7          	lui	a5,0xf4040
80006588:	4709                	li	a4,2
8000658a:	28e7a423          	sw	a4,648(a5) # f4040288 <__fast_ram_init_load_addr__+0x7401f9f8>
}
8000658e:	0001                	nop
80006590:	8082                	ret

80006592 <init_esc_pins>:
    HPM_IOC->PAD[IOC_PAD_PD09].PAD_CTL = IOC_PAD_PAD_CTL_PE_SET(1) | IOC_PAD_PAD_CTL_PS_SET(1) | IOC_PAD_PAD_CTL_OD_SET(1);
}

void init_esc_pins(void)
{
    HPM_IOC->PAD[IOC_PAD_PA09].FUNC_CTL = IOC_PA09_FUNC_CTL_ESC0_REFCK;
80006592:	f40407b7          	lui	a5,0xf4040
80006596:	472d                	li	a4,11
80006598:	c7b8                	sw	a4,72(a5)

    HPM_IOC->PAD[IOC_PAD_PA30].FUNC_CTL = IOC_PA30_FUNC_CTL_ESC0_MDIO;
8000659a:	f40407b7          	lui	a5,0xf4040
8000659e:	472d                	li	a4,11
800065a0:	0ee7a823          	sw	a4,240(a5) # f40400f0 <__fast_ram_init_load_addr__+0x7401f860>

    HPM_IOC->PAD[IOC_PAD_PA31].FUNC_CTL = IOC_PA31_FUNC_CTL_ESC0_MDC;
800065a4:	f40407b7          	lui	a5,0xf4040
800065a8:	472d                	li	a4,11
800065aa:	0ee7ac23          	sw	a4,248(a5) # f40400f8 <__fast_ram_init_load_addr__+0x7401f868>
    /*
     * ESC needs to configure these pins for specific functions, The corresponding macro should be defined in board.h.
     * Such as PC20(IOC_PC20_FUNC_CTL_ESC0_CTR_2) pin as NMII_LINK0 signal, BOARD_ECAT_NMII_LINK0_CTRL_INDEX should de defined to 2.
     * GPIO to reset PHY.
     */
    HPM_IOC->PAD[IOC_PAD_PB24].FUNC_CTL = IOC_PB24_FUNC_CTL_GPIO_B_24;
800065ae:	f40407b7          	lui	a5,0xf4040
800065b2:	1c07a023          	sw	zero,448(a5) # f40401c0 <__fast_ram_init_load_addr__+0x7401f930>

    /*
     * NMII_LINK0 function.
     * Internally pull up to avoid suspension
     */
    HPM_IOC->PAD[IOC_PAD_PC20].FUNC_CTL = IOC_PC20_FUNC_CTL_ESC0_CTR_2;
800065b6:	f40407b7          	lui	a5,0xf4040
800065ba:	4749                	li	a4,18
800065bc:	2ae7a023          	sw	a4,672(a5) # f40402a0 <__fast_ram_init_load_addr__+0x7401fa10>
    HPM_IOC->PAD[IOC_PAD_PC20].PAD_CTL = IOC_PAD_PAD_CTL_PE_SET(1) | IOC_PAD_PAD_CTL_PS_SET(1);
800065c0:	f40407b7          	lui	a5,0xf4040
800065c4:	00060737          	lui	a4,0x60
800065c8:	2ae7a223          	sw	a4,676(a5) # f40402a4 <__fast_ram_init_load_addr__+0x7401fa14>

    /*
     * NMII_LINK1 function.
     * Internally pull up to avoid suspension
     */
    HPM_IOC->PAD[IOC_PAD_PB25].FUNC_CTL = IOC_PB25_FUNC_CTL_ESC0_CTR_5;
800065cc:	f40407b7          	lui	a5,0xf4040
800065d0:	472d                	li	a4,11
800065d2:	1ce7a423          	sw	a4,456(a5) # f40401c8 <__fast_ram_init_load_addr__+0x7401f938>
    HPM_IOC->PAD[IOC_PAD_PB25].PAD_CTL = IOC_PAD_PAD_CTL_PE_SET(1) | IOC_PAD_PAD_CTL_PS_SET(1);
800065d6:	f40407b7          	lui	a5,0xf4040
800065da:	00060737          	lui	a4,0x60
800065de:	1ce7a623          	sw	a4,460(a5) # f40401cc <__fast_ram_init_load_addr__+0x7401f93c>

    /*
     * NMII_LINK2 function.
     * Internally pull up to avoid suspension
     */
    HPM_IOC->PAD[IOC_PAD_PE02].FUNC_CTL = IOC_PE02_FUNC_CTL_ESC0_CTR_6;
800065e2:	f40407b7          	lui	a5,0xf4040
800065e6:	472d                	li	a4,11
800065e8:	40e7a823          	sw	a4,1040(a5) # f4040410 <__fast_ram_init_load_addr__+0x7401fb80>
    HPM_IOC->PAD[IOC_PAD_PE02].PAD_CTL = IOC_PAD_PAD_CTL_PE_SET(1) | IOC_PAD_PAD_CTL_PS_SET(1);
800065ec:	f40407b7          	lui	a5,0xf4040
800065f0:	00060737          	lui	a4,0x60
800065f4:	40e7aa23          	sw	a4,1044(a5) # f4040414 <__fast_ram_init_load_addr__+0x7401fb84>

    /* ESC port0 */
    HPM_IOC->PAD[IOC_PAD_PA24].FUNC_CTL = IOC_PA24_FUNC_CTL_ESC0_P0_TXCK;
800065f8:	f40407b7          	lui	a5,0xf4040
800065fc:	472d                	li	a4,11
800065fe:	0ce7a023          	sw	a4,192(a5) # f40400c0 <__fast_ram_init_load_addr__+0x7401f830>

    HPM_IOC->PAD[IOC_PAD_PA29].FUNC_CTL = IOC_PA29_FUNC_CTL_ESC0_P0_TXEN;
80006602:	f40407b7          	lui	a5,0xf4040
80006606:	472d                	li	a4,11
80006608:	0ee7a423          	sw	a4,232(a5) # f40400e8 <__fast_ram_init_load_addr__+0x7401f858>

    HPM_IOC->PAD[IOC_PAD_PA25].FUNC_CTL = IOC_PA25_FUNC_CTL_ESC0_P0_TXD_0;
8000660c:	f40407b7          	lui	a5,0xf4040
80006610:	472d                	li	a4,11
80006612:	0ce7a423          	sw	a4,200(a5) # f40400c8 <__fast_ram_init_load_addr__+0x7401f838>

    HPM_IOC->PAD[IOC_PAD_PA26].FUNC_CTL = IOC_PA26_FUNC_CTL_ESC0_P0_TXD_1;
80006616:	f40407b7          	lui	a5,0xf4040
8000661a:	472d                	li	a4,11
8000661c:	0ce7a823          	sw	a4,208(a5) # f40400d0 <__fast_ram_init_load_addr__+0x7401f840>

    HPM_IOC->PAD[IOC_PAD_PA27].FUNC_CTL = IOC_PA27_FUNC_CTL_ESC0_P0_TXD_2;
80006620:	f40407b7          	lui	a5,0xf4040
80006624:	472d                	li	a4,11
80006626:	0ce7ac23          	sw	a4,216(a5) # f40400d8 <__fast_ram_init_load_addr__+0x7401f848>

    HPM_IOC->PAD[IOC_PAD_PA28].FUNC_CTL = IOC_PA28_FUNC_CTL_ESC0_P0_TXD_3;
8000662a:	f40407b7          	lui	a5,0xf4040
8000662e:	472d                	li	a4,11
80006630:	0ee7a023          	sw	a4,224(a5) # f40400e0 <__fast_ram_init_load_addr__+0x7401f850>

    HPM_IOC->PAD[IOC_PAD_PA21].FUNC_CTL = IOC_PA21_FUNC_CTL_ESC0_P0_RXCK;
80006634:	f40407b7          	lui	a5,0xf4040
80006638:	472d                	li	a4,11
8000663a:	0ae7a423          	sw	a4,168(a5) # f40400a8 <__fast_ram_init_load_addr__+0x7401f818>

    HPM_IOC->PAD[IOC_PAD_PA16].FUNC_CTL = IOC_PA16_FUNC_CTL_ESC0_P0_RXDV;
8000663e:	f40407b7          	lui	a5,0xf4040
80006642:	472d                	li	a4,11
80006644:	08e7a023          	sw	a4,128(a5) # f4040080 <__fast_ram_init_load_addr__+0x7401f7f0>

    HPM_IOC->PAD[IOC_PAD_PA23].FUNC_CTL = IOC_PA23_FUNC_CTL_ESC0_P0_RXER;
80006648:	f40407b7          	lui	a5,0xf4040
8000664c:	472d                	li	a4,11
8000664e:	0ae7ac23          	sw	a4,184(a5) # f40400b8 <__fast_ram_init_load_addr__+0x7401f828>

    HPM_IOC->PAD[IOC_PAD_PA17].FUNC_CTL = IOC_PA17_FUNC_CTL_ESC0_P0_RXD_0;
80006652:	f40407b7          	lui	a5,0xf4040
80006656:	472d                	li	a4,11
80006658:	08e7a423          	sw	a4,136(a5) # f4040088 <__fast_ram_init_load_addr__+0x7401f7f8>

    HPM_IOC->PAD[IOC_PAD_PA18].FUNC_CTL = IOC_PA18_FUNC_CTL_ESC0_P0_RXD_1;
8000665c:	f40407b7          	lui	a5,0xf4040
80006660:	472d                	li	a4,11
80006662:	08e7a823          	sw	a4,144(a5) # f4040090 <__fast_ram_init_load_addr__+0x7401f800>

    HPM_IOC->PAD[IOC_PAD_PA19].FUNC_CTL = IOC_PA19_FUNC_CTL_ESC0_P0_RXD_2;
80006666:	f40407b7          	lui	a5,0xf4040
8000666a:	472d                	li	a4,11
8000666c:	08e7ac23          	sw	a4,152(a5) # f4040098 <__fast_ram_init_load_addr__+0x7401f808>

    HPM_IOC->PAD[IOC_PAD_PA20].FUNC_CTL = IOC_PA20_FUNC_CTL_ESC0_P0_RXD_3;
80006670:	f40407b7          	lui	a5,0xf4040
80006674:	472d                	li	a4,11
80006676:	0ae7a023          	sw	a4,160(a5) # f40400a0 <__fast_ram_init_load_addr__+0x7401f810>

    /* ESC port1 */
    HPM_IOC->PAD[IOC_PAD_PF02].FUNC_CTL = IOC_PF02_FUNC_CTL_ESC0_P1_TXCK;
8000667a:	f40407b7          	lui	a5,0xf4040
8000667e:	472d                	li	a4,11
80006680:	50e7a823          	sw	a4,1296(a5) # f4040510 <__fast_ram_init_load_addr__+0x7401fc80>

    HPM_IOC->PAD[IOC_PAD_PF07].FUNC_CTL = IOC_PF07_FUNC_CTL_ESC0_P1_TXEN;
80006684:	f40407b7          	lui	a5,0xf4040
80006688:	472d                	li	a4,11
8000668a:	52e7ac23          	sw	a4,1336(a5) # f4040538 <__fast_ram_init_load_addr__+0x7401fca8>

    HPM_IOC->PAD[IOC_PAD_PF03].FUNC_CTL = IOC_PF03_FUNC_CTL_ESC0_P1_TXD_0;
8000668e:	f40407b7          	lui	a5,0xf4040
80006692:	472d                	li	a4,11
80006694:	50e7ac23          	sw	a4,1304(a5) # f4040518 <__fast_ram_init_load_addr__+0x7401fc88>

    HPM_IOC->PAD[IOC_PAD_PF04].FUNC_CTL = IOC_PF04_FUNC_CTL_ESC0_P1_TXD_1;
80006698:	f40407b7          	lui	a5,0xf4040
8000669c:	472d                	li	a4,11
8000669e:	52e7a023          	sw	a4,1312(a5) # f4040520 <__fast_ram_init_load_addr__+0x7401fc90>

    HPM_IOC->PAD[IOC_PAD_PF05].FUNC_CTL = IOC_PF05_FUNC_CTL_ESC0_P1_TXD_2;
800066a2:	f40407b7          	lui	a5,0xf4040
800066a6:	472d                	li	a4,11
800066a8:	52e7a423          	sw	a4,1320(a5) # f4040528 <__fast_ram_init_load_addr__+0x7401fc98>

    HPM_IOC->PAD[IOC_PAD_PF06].FUNC_CTL = IOC_PF06_FUNC_CTL_ESC0_P1_TXD_3;
800066ac:	f40407b7          	lui	a5,0xf4040
800066b0:	472d                	li	a4,11
800066b2:	52e7a823          	sw	a4,1328(a5) # f4040530 <__fast_ram_init_load_addr__+0x7401fca0>

    HPM_IOC->PAD[IOC_PAD_PF13].FUNC_CTL = IOC_PF13_FUNC_CTL_ESC0_P1_RXCK;
800066b6:	f40407b7          	lui	a5,0xf4040
800066ba:	472d                	li	a4,11
800066bc:	56e7a423          	sw	a4,1384(a5) # f4040568 <__fast_ram_init_load_addr__+0x7401fcd8>

    HPM_IOC->PAD[IOC_PAD_PF08].FUNC_CTL = IOC_PF08_FUNC_CTL_ESC0_P1_RXDV;
800066c0:	f40407b7          	lui	a5,0xf4040
800066c4:	472d                	li	a4,11
800066c6:	54e7a023          	sw	a4,1344(a5) # f4040540 <__fast_ram_init_load_addr__+0x7401fcb0>

    HPM_IOC->PAD[IOC_PAD_PF14].FUNC_CTL = IOC_PF14_FUNC_CTL_ESC0_P1_RXER;
800066ca:	f40407b7          	lui	a5,0xf4040
800066ce:	472d                	li	a4,11
800066d0:	56e7a823          	sw	a4,1392(a5) # f4040570 <__fast_ram_init_load_addr__+0x7401fce0>

    HPM_IOC->PAD[IOC_PAD_PF09].FUNC_CTL = IOC_PF09_FUNC_CTL_ESC0_P1_RXD_0;
800066d4:	f40407b7          	lui	a5,0xf4040
800066d8:	472d                	li	a4,11
800066da:	54e7a423          	sw	a4,1352(a5) # f4040548 <__fast_ram_init_load_addr__+0x7401fcb8>

    HPM_IOC->PAD[IOC_PAD_PF10].FUNC_CTL = IOC_PF10_FUNC_CTL_ESC0_P1_RXD_1;
800066de:	f40407b7          	lui	a5,0xf4040
800066e2:	472d                	li	a4,11
800066e4:	54e7a823          	sw	a4,1360(a5) # f4040550 <__fast_ram_init_load_addr__+0x7401fcc0>

    HPM_IOC->PAD[IOC_PAD_PF11].FUNC_CTL = IOC_PF11_FUNC_CTL_ESC0_P1_RXD_2;
800066e8:	f40407b7          	lui	a5,0xf4040
800066ec:	472d                	li	a4,11
800066ee:	54e7ac23          	sw	a4,1368(a5) # f4040558 <__fast_ram_init_load_addr__+0x7401fcc8>

    HPM_IOC->PAD[IOC_PAD_PF12].FUNC_CTL = IOC_PF12_FUNC_CTL_ESC0_P1_RXD_3;
800066f2:	f40407b7          	lui	a5,0xf4040
800066f6:	472d                	li	a4,11
800066f8:	56e7a023          	sw	a4,1376(a5) # f4040560 <__fast_ram_init_load_addr__+0x7401fcd0>

    /* ESC port2 */
    HPM_IOC->PAD[IOC_PAD_PD16].FUNC_CTL = IOC_PD16_FUNC_CTL_ESC0_P2_RXDV;
800066fc:	f40407b7          	lui	a5,0xf4040
80006700:	476d                	li	a4,27
80006702:	38e7a023          	sw	a4,896(a5) # f4040380 <__fast_ram_init_load_addr__+0x7401faf0>

    HPM_IOC->PAD[IOC_PAD_PD17].FUNC_CTL = IOC_PD17_FUNC_CTL_ESC0_P2_RXD_0;
80006706:	f40407b7          	lui	a5,0xf4040
8000670a:	476d                	li	a4,27
8000670c:	38e7a423          	sw	a4,904(a5) # f4040388 <__fast_ram_init_load_addr__+0x7401faf8>

    HPM_IOC->PAD[IOC_PAD_PD18].FUNC_CTL = IOC_PD18_FUNC_CTL_ESC0_P2_RXD_1;
80006710:	f40407b7          	lui	a5,0xf4040
80006714:	476d                	li	a4,27
80006716:	38e7a823          	sw	a4,912(a5) # f4040390 <__fast_ram_init_load_addr__+0x7401fb00>

    HPM_IOC->PAD[IOC_PAD_PD19].FUNC_CTL = IOC_PD19_FUNC_CTL_ESC0_P2_RXD_2;
8000671a:	f40407b7          	lui	a5,0xf4040
8000671e:	476d                	li	a4,27
80006720:	38e7ac23          	sw	a4,920(a5) # f4040398 <__fast_ram_init_load_addr__+0x7401fb08>

    HPM_IOC->PAD[IOC_PAD_PD20].FUNC_CTL = IOC_PD20_FUNC_CTL_ESC0_P2_RXD_3;
80006724:	f40407b7          	lui	a5,0xf4040
80006728:	476d                	li	a4,27
8000672a:	3ae7a023          	sw	a4,928(a5) # f40403a0 <__fast_ram_init_load_addr__+0x7401fb10>

    HPM_IOC->PAD[IOC_PAD_PD21].FUNC_CTL = IOC_PD21_FUNC_CTL_ESC0_P2_RXCK;
8000672e:	f40407b7          	lui	a5,0xf4040
80006732:	476d                	li	a4,27
80006734:	3ae7a423          	sw	a4,936(a5) # f40403a8 <__fast_ram_init_load_addr__+0x7401fb18>

    HPM_IOC->PAD[IOC_PAD_PD22].FUNC_CTL = IOC_PD22_FUNC_CTL_ESC0_P2_RXER;
80006738:	f40407b7          	lui	a5,0xf4040
8000673c:	476d                	li	a4,27
8000673e:	3ae7a823          	sw	a4,944(a5) # f40403b0 <__fast_ram_init_load_addr__+0x7401fb20>

    HPM_IOC->PAD[IOC_PAD_PD23].FUNC_CTL = IOC_PD23_FUNC_CTL_ESC0_P2_TXCK;
80006742:	f40407b7          	lui	a5,0xf4040
80006746:	476d                	li	a4,27
80006748:	3ae7ac23          	sw	a4,952(a5) # f40403b8 <__fast_ram_init_load_addr__+0x7401fb28>

    HPM_IOC->PAD[IOC_PAD_PD24].FUNC_CTL = IOC_PD24_FUNC_CTL_ESC0_P2_TXD_0;
8000674c:	f40407b7          	lui	a5,0xf4040
80006750:	476d                	li	a4,27
80006752:	3ce7a023          	sw	a4,960(a5) # f40403c0 <__fast_ram_init_load_addr__+0x7401fb30>

    HPM_IOC->PAD[IOC_PAD_PD25].FUNC_CTL = IOC_PD25_FUNC_CTL_ESC0_P2_TXD_1;
80006756:	f40407b7          	lui	a5,0xf4040
8000675a:	476d                	li	a4,27
8000675c:	3ce7a423          	sw	a4,968(a5) # f40403c8 <__fast_ram_init_load_addr__+0x7401fb38>

    HPM_IOC->PAD[IOC_PAD_PD26].FUNC_CTL = IOC_PD26_FUNC_CTL_ESC0_P2_TXD_2;
80006760:	f40407b7          	lui	a5,0xf4040
80006764:	476d                	li	a4,27
80006766:	3ce7a823          	sw	a4,976(a5) # f40403d0 <__fast_ram_init_load_addr__+0x7401fb40>

    HPM_IOC->PAD[IOC_PAD_PD27].FUNC_CTL = IOC_PD27_FUNC_CTL_ESC0_P2_TXD_3;
8000676a:	f40407b7          	lui	a5,0xf4040
8000676e:	476d                	li	a4,27
80006770:	3ce7ac23          	sw	a4,984(a5) # f40403d8 <__fast_ram_init_load_addr__+0x7401fb48>

    HPM_IOC->PAD[IOC_PAD_PD28].FUNC_CTL = IOC_PD28_FUNC_CTL_ESC0_P2_TXEN;
80006774:	f40407b7          	lui	a5,0xf4040
80006778:	476d                	li	a4,27
8000677a:	3ee7a023          	sw	a4,992(a5) # f40403e0 <__fast_ram_init_load_addr__+0x7401fb50>
}
8000677e:	0001                	nop
80006780:	8082                	ret

80006782 <init_esc_in_out_pin>:

/* ESC input/output demo pins */
void init_esc_in_out_pin(void)
{
    HPM_IOC->PAD[IOC_PAD_PD06].FUNC_CTL = IOC_PD06_FUNC_CTL_GPIO_D_06;
80006782:	f40407b7          	lui	a5,0xf4040
80006786:	3207a823          	sw	zero,816(a5) # f4040330 <__fast_ram_init_load_addr__+0x7401faa0>

    HPM_IOC->PAD[IOC_PAD_PD12].FUNC_CTL = IOC_PD12_FUNC_CTL_GPIO_D_12;
8000678a:	f40407b7          	lui	a5,0xf4040
8000678e:	3607a023          	sw	zero,864(a5) # f4040360 <__fast_ram_init_load_addr__+0x7401fad0>

    HPM_IOC->PAD[IOC_PAD_PC23].FUNC_CTL = IOC_PC23_FUNC_CTL_GPIO_C_23;
80006792:	f40407b7          	lui	a5,0xf4040
80006796:	2a07ac23          	sw	zero,696(a5) # f40402b8 <__fast_ram_init_load_addr__+0x7401fa28>

    HPM_IOC->PAD[IOC_PAD_PC24].FUNC_CTL = IOC_PC24_FUNC_CTL_GPIO_C_24;
8000679a:	f40407b7          	lui	a5,0xf4040
8000679e:	2c07a023          	sw	zero,704(a5) # f40402c0 <__fast_ram_init_load_addr__+0x7401fa30>
}
800067a2:	0001                	nop
800067a4:	8082                	ret

800067a6 <sysctl_clock_set_preset>:
}

void init_uart_pins(UART_Type *ptr)
{
    if (ptr == HPM_UART0) {
        init_uart0_pins();
800067a6:	1141                	add	sp,sp,-16
800067a8:	c62a                	sw	a0,12(sp)
800067aa:	c42e                	sw	a1,8(sp)
    } else if (ptr == HPM_UART4) {
800067ac:	4732                	lw	a4,12(sp)
800067ae:	6789                	lui	a5,0x2
800067b0:	97ba                	add	a5,a5,a4
800067b2:	439c                	lw	a5,0(a5)
800067b4:	f007f713          	and	a4,a5,-256
800067b8:	47a2                	lw	a5,8(sp)
800067ba:	0ff7f793          	zext.b	a5,a5
800067be:	8f5d                	or	a4,a4,a5
800067c0:	46b2                	lw	a3,12(sp)
800067c2:	6789                	lui	a5,0x2
800067c4:	97b6                	add	a5,a5,a3
800067c6:	c398                	sw	a4,0(a5)
        init_uart4_pins();
800067c8:	0001                	nop
800067ca:	0141                	add	sp,sp,16
800067cc:	8082                	ret

800067ce <gptmr_check_status>:
 *
 * @param [in] ptr GPTMR base address
 * @param [in] mask channel flag mask
 */
static inline bool gptmr_check_status(GPTMR_Type *ptr, uint32_t mask)
{
800067ce:	1141                	add	sp,sp,-16
800067d0:	c62a                	sw	a0,12(sp)
800067d2:	c42e                	sw	a1,8(sp)
    return (ptr->SR & mask) == mask;
800067d4:	47b2                	lw	a5,12(sp)
800067d6:	2007a703          	lw	a4,512(a5) # 2200 <__ramfunc_end__+0x68>
800067da:	47a2                	lw	a5,8(sp)
800067dc:	8ff9                	and	a5,a5,a4
800067de:	4722                	lw	a4,8(sp)
800067e0:	40f707b3          	sub	a5,a4,a5
800067e4:	0017b793          	seqz	a5,a5
800067e8:	0ff7f793          	zext.b	a5,a5
}
800067ec:	853e                	mv	a0,a5
800067ee:	0141                	add	sp,sp,16
800067f0:	8082                	ret

800067f2 <gptmr_clear_status>:
 *
 * @param [in] ptr GPTMR base address
 * @param [in] mask channel flag mask
 */
static inline void gptmr_clear_status(GPTMR_Type *ptr, uint32_t mask)
{
800067f2:	1141                	add	sp,sp,-16
800067f4:	c62a                	sw	a0,12(sp)
800067f6:	c42e                	sw	a1,8(sp)
    ptr->SR = mask;
800067f8:	47b2                	lw	a5,12(sp)
800067fa:	4722                	lw	a4,8(sp)
800067fc:	20e7a023          	sw	a4,512(a5)
}
80006800:	0001                	nop
80006802:	0141                	add	sp,sp,16
80006804:	8082                	ret

80006806 <gpio_set_pin_input>:
 * @param ptr GPIO base address
 * @param port Port index
 * @param pin Pin index
 */
static inline void gpio_set_pin_input(GPIO_Type *ptr, uint32_t port, uint8_t pin)
{
80006806:	1141                	add	sp,sp,-16
80006808:	c62a                	sw	a0,12(sp)
8000680a:	c42e                	sw	a1,8(sp)
8000680c:	87b2                	mv	a5,a2
8000680e:	00f103a3          	sb	a5,7(sp)
    ptr->OE[port].CLEAR = 1 << pin;
80006812:	00714783          	lbu	a5,7(sp)
80006816:	4705                	li	a4,1
80006818:	00f717b3          	sll	a5,a4,a5
8000681c:	86be                	mv	a3,a5
8000681e:	4732                	lw	a4,12(sp)
80006820:	47a2                	lw	a5,8(sp)
80006822:	02078793          	add	a5,a5,32
80006826:	0792                	sll	a5,a5,0x4
80006828:	97ba                	add	a5,a5,a4
8000682a:	c794                	sw	a3,8(a5)
}
8000682c:	0001                	nop
8000682e:	0141                	add	sp,sp,16
80006830:	8082                	ret

80006832 <pllctlv2_xtal_set_rampup_time>:
 * @param [in] ptr Base address of the PLLCTLV2 peripheral
 * @param [in] rc24m_cycles Number of RC24M clock cycles for the ramp-up period
 * @note The ramp-up time affects how quickly the crystal oscillator reaches stable operation
 */
static inline void pllctlv2_xtal_set_rampup_time(PLLCTLV2_Type *ptr, uint32_t rc24m_cycles)
{
80006832:	1141                	add	sp,sp,-16
80006834:	c62a                	sw	a0,12(sp)
80006836:	c42e                	sw	a1,8(sp)
    ptr->XTAL = (ptr->XTAL & ~PLLCTLV2_XTAL_RAMP_TIME_MASK) | PLLCTLV2_XTAL_RAMP_TIME_SET(rc24m_cycles);
80006838:	47b2                	lw	a5,12(sp)
8000683a:	4398                	lw	a4,0(a5)
8000683c:	fff007b7          	lui	a5,0xfff00
80006840:	8f7d                	and	a4,a4,a5
80006842:	46a2                	lw	a3,8(sp)
80006844:	001007b7          	lui	a5,0x100
80006848:	17fd                	add	a5,a5,-1 # fffff <__fw_size__+0xe276f>
8000684a:	8ff5                	and	a5,a5,a3
8000684c:	8f5d                	or	a4,a4,a5
8000684e:	47b2                	lw	a5,12(sp)
80006850:	c398                	sw	a4,0(a5)
}
80006852:	0001                	nop
80006854:	0141                	add	sp,sp,16
80006856:	8082                	ret

80006858 <board_print_clock_freq>:
{
80006858:	1141                	add	sp,sp,-16
8000685a:	c606                	sw	ra,12(sp)
    printf("==============================\n");
8000685c:	8001c7b7          	lui	a5,0x8001c
80006860:	dec78513          	add	a0,a5,-532 # 8001bdec <_lseek+0x104>
80006864:	71a110ef          	jal	80017f7e <iprintf>
    printf(" %s clock summary\n", BOARD_NAME);
80006868:	8001c7b7          	lui	a5,0x8001c
8000686c:	e0c78593          	add	a1,a5,-500 # 8001be0c <_lseek+0x124>
80006870:	8001c7b7          	lui	a5,0x8001c
80006874:	e1878513          	add	a0,a5,-488 # 8001be18 <_lseek+0x130>
80006878:	706110ef          	jal	80017f7e <iprintf>
    printf("==============================\n");
8000687c:	8001c7b7          	lui	a5,0x8001c
80006880:	dec78513          	add	a0,a5,-532 # 8001bdec <_lseek+0x104>
80006884:	6fa110ef          	jal	80017f7e <iprintf>
    printf("cpu0:\t\t %dHz\n", clock_get_frequency(clock_cpu0));
80006888:	4501                	li	a0,0
8000688a:	00b000ef          	jal	80007094 <clock_get_frequency>
8000688e:	87aa                	mv	a5,a0
80006890:	85be                	mv	a1,a5
80006892:	8001c7b7          	lui	a5,0x8001c
80006896:	e2c78513          	add	a0,a5,-468 # 8001be2c <_lseek+0x144>
8000689a:	6e4110ef          	jal	80017f7e <iprintf>
    printf("ahb:\t\t %luHz\n", clock_get_frequency(clock_ahb0));
8000689e:	010007b7          	lui	a5,0x1000
800068a2:	00278513          	add	a0,a5,2 # 1000002 <_stack+0xdf8002>
800068a6:	7ee000ef          	jal	80007094 <clock_get_frequency>
800068aa:	87aa                	mv	a5,a0
