	.file	"ecatslv.c"
	.option nopic
	.attribute arch, "rv32i2p1_m2p0_a2p1_c2p0_zicsr2p0_zifencei2p0_zba1p0_zbb1p0_zbc1p0_zbs1p0"
	.attribute unaligned_access, 0
	.attribute stack_align, 16
	.text
.Ltext0:
	.cfi_sections	.debug_frame
	.file 1 "C:\\sdk_env_v1.11.0\\hpm_sdk\\samples\\ethercat\\ecat_io\\SSC\\Src\\ecatslv.c"
	.globl	bEcatOutputUpdateRunning
	.section	.sbss.bEcatOutputUpdateRunning,"aw",@nobits
	.type	bEcatOutputUpdateRunning, @object
	.size	bEcatOutputUpdateRunning, 1
bEcatOutputUpdateRunning:
	.zero	1
	.globl	bEcatInputUpdateRunning
	.section	.sbss.bEcatInputUpdateRunning,"aw",@nobits
	.type	bEcatInputUpdateRunning, @object
	.size	bEcatInputUpdateRunning, 1
bEcatInputUpdateRunning:
	.zero	1
	.globl	bEcatFirstOutputsReceived
	.section	.sbss.bEcatFirstOutputsReceived,"aw",@nobits
	.type	bEcatFirstOutputsReceived, @object
	.size	bEcatFirstOutputsReceived, 1
bEcatFirstOutputsReceived:
	.zero	1
	.globl	bWdTrigger
	.section	.sbss.bWdTrigger,"aw",@nobits
	.type	bWdTrigger, @object
	.size	bWdTrigger, 1
bWdTrigger:
	.zero	1
	.globl	bDcSyncActive
	.section	.sbss.bDcSyncActive,"aw",@nobits
	.type	bDcSyncActive, @object
	.size	bDcSyncActive, 1
bDcSyncActive:
	.zero	1
	.globl	EsmTimeoutCounter
	.section	.sbss.EsmTimeoutCounter,"aw",@nobits
	.align	1
	.type	EsmTimeoutCounter, @object
	.size	EsmTimeoutCounter, 2
EsmTimeoutCounter:
	.zero	2
	.globl	bDcRunning
	.section	.sbss.bDcRunning,"aw",@nobits
	.type	bDcRunning, @object
	.size	bDcRunning, 1
bDcRunning:
	.zero	1
	.globl	u16SmSync0Counter
	.section	.sbss.u16SmSync0Counter,"aw",@nobits
	.align	1
	.type	u16SmSync0Counter, @object
	.size	u16SmSync0Counter, 2
u16SmSync0Counter:
	.zero	2
	.globl	u16SmSync0Value
	.section	.sbss.u16SmSync0Value,"aw",@nobits
	.align	1
	.type	u16SmSync0Value, @object
	.size	u16SmSync0Value, 2
u16SmSync0Value:
	.zero	2
	.globl	bSmSyncSequenceValid
	.section	.sbss.bSmSyncSequenceValid,"aw",@nobits
	.type	bSmSyncSequenceValid, @object
	.size	bSmSyncSequenceValid, 1
bSmSyncSequenceValid:
	.zero	1
	.globl	i16WaitForPllRunningTimeout
	.section	.sbss.i16WaitForPllRunningTimeout,"aw",@nobits
	.align	1
	.type	i16WaitForPllRunningTimeout, @object
	.size	i16WaitForPllRunningTimeout, 2
i16WaitForPllRunningTimeout:
	.zero	2
	.globl	i16WaitForPllRunningCnt
	.section	.sbss.i16WaitForPllRunningCnt,"aw",@nobits
	.align	1
	.type	i16WaitForPllRunningCnt, @object
	.size	i16WaitForPllRunningCnt, 2
i16WaitForPllRunningCnt:
	.zero	2
	.globl	Sync0WdCounter
	.section	.sbss.Sync0WdCounter,"aw",@nobits
	.align	1
	.type	Sync0WdCounter, @object
	.size	Sync0WdCounter, 2
Sync0WdCounter:
	.zero	2
	.globl	Sync0WdValue
	.section	.sbss.Sync0WdValue,"aw",@nobits
	.align	1
	.type	Sync0WdValue, @object
	.size	Sync0WdValue, 2
Sync0WdValue:
	.zero	2
	.globl	Sync1WdCounter
	.section	.sbss.Sync1WdCounter,"aw",@nobits
	.align	1
	.type	Sync1WdCounter, @object
	.size	Sync1WdCounter, 2
Sync1WdCounter:
	.zero	2
	.globl	Sync1WdValue
	.section	.sbss.Sync1WdValue,"aw",@nobits
	.align	1
	.type	Sync1WdValue, @object
	.size	Sync1WdValue, 2
Sync1WdValue:
	.zero	2
	.globl	LatchInputSync0Value
	.section	.sbss.LatchInputSync0Value,"aw",@nobits
	.align	1
	.type	LatchInputSync0Value, @object
	.size	LatchInputSync0Value, 2
LatchInputSync0Value:
	.zero	2
	.globl	LatchInputSync0Counter
	.section	.sbss.LatchInputSync0Counter,"aw",@nobits
	.align	1
	.type	LatchInputSync0Counter, @object
	.size	LatchInputSync0Counter, 2
LatchInputSync0Counter:
	.zero	2
	.globl	b32BitDc
	.section	.sbss.b32BitDc,"aw",@nobits
	.type	b32BitDc, @object
	.size	b32BitDc, 1
b32BitDc:
	.zero	1
	.globl	bEscIntEnabled
	.section	.sbss.bEscIntEnabled,"aw",@nobits
	.type	bEscIntEnabled, @object
	.size	bEscIntEnabled, 1
bEscIntEnabled:
	.zero	1
	.globl	b3BufferMode
	.section	.sbss.b3BufferMode,"aw",@nobits
	.type	b3BufferMode, @object
	.size	b3BufferMode, 1
b3BufferMode:
	.zero	1
	.globl	u16LocalErrorCode
	.section	.sbss.u16LocalErrorCode,"aw",@nobits
	.align	1
	.type	u16LocalErrorCode, @object
	.size	u16LocalErrorCode, 2
u16LocalErrorCode:
	.zero	2
	.globl	u8LocalErrorState
	.section	.sbss.u8LocalErrorState,"aw",@nobits
	.type	u8LocalErrorState, @object
	.size	u8LocalErrorState, 1
u8LocalErrorState:
	.zero	1
	.globl	bApplEsmPending
	.section	.sbss.bApplEsmPending,"aw",@nobits
	.type	bApplEsmPending, @object
	.size	bApplEsmPending, 1
bApplEsmPending:
	.zero	1
	.globl	bEcatWaitForAlControlRes
	.section	.sbss.bEcatWaitForAlControlRes,"aw",@nobits
	.type	bEcatWaitForAlControlRes, @object
	.size	bEcatWaitForAlControlRes, 1
bEcatWaitForAlControlRes:
	.zero	1
	.globl	nEcatStateTrans
	.section	.sbss.nEcatStateTrans,"aw",@nobits
	.align	1
	.type	nEcatStateTrans, @object
	.size	nEcatStateTrans, 2
nEcatStateTrans:
	.zero	2
	.globl	u8EcatErrorLed
	.section	.sbss.u8EcatErrorLed,"aw",@nobits
	.type	u8EcatErrorLed, @object
	.size	u8EcatErrorLed, 1
u8EcatErrorLed:
	.zero	1
	.globl	u8EcatRunLed
	.section	.sbss.u8EcatRunLed,"aw",@nobits
	.type	u8EcatRunLed, @object
	.size	u8EcatRunLed, 1
u8EcatRunLed:
	.zero	1
	.globl	nPdInputSize
	.section	.sbss.nPdInputSize,"aw",@nobits
	.align	1
	.type	nPdInputSize, @object
	.size	nPdInputSize, 2
nPdInputSize:
	.zero	2
	.globl	nPdOutputSize
	.section	.sbss.nPdOutputSize,"aw",@nobits
	.align	1
	.type	nPdOutputSize, @object
	.size	nPdOutputSize, 2
nPdOutputSize:
	.zero	2
	.globl	nMaxSyncMan
	.section	.sbss.nMaxSyncMan,"aw",@nobits
	.type	nMaxSyncMan, @object
	.size	nMaxSyncMan, 1
nMaxSyncMan:
	.zero	1
	.globl	nMaxEscAddress
	.section	.sbss.nMaxEscAddress,"aw",@nobits
	.align	1
	.type	nMaxEscAddress, @object
	.size	nMaxEscAddress, 2
nMaxEscAddress:
	.zero	2
	.globl	nAlStatus
	.section	.sbss.nAlStatus,"aw",@nobits
	.type	nAlStatus, @object
	.size	nAlStatus, 1
nAlStatus:
	.zero	1
	.globl	bExplicitDevIdRequested
	.section	.sbss.bExplicitDevIdRequested,"aw",@nobits
	.type	bExplicitDevIdRequested, @object
	.size	bExplicitDevIdRequested, 1
bExplicitDevIdRequested:
	.zero	1
	.globl	EcatWdValue
	.section	.sbss.EcatWdValue,"aw",@nobits
	.align	1
	.type	EcatWdValue, @object
	.size	EcatWdValue, 2
EcatWdValue:
	.zero	2
	.globl	nEscAddrOutputData
	.section	.sbss.nEscAddrOutputData,"aw",@nobits
	.align	1
	.type	nEscAddrOutputData, @object
	.size	nEscAddrOutputData, 2
nEscAddrOutputData:
	.zero	2
	.globl	nEscAddrInputData
	.section	.sbss.nEscAddrInputData,"aw",@nobits
	.align	1
	.type	nEscAddrInputData, @object
	.size	nEscAddrInputData, 2
nEscAddrInputData:
	.zero	2
	.globl	u16ALEventMask
	.section	.sbss.u16ALEventMask,"aw",@nobits
	.align	1
	.type	u16ALEventMask, @object
	.size	u16ALEventMask, 2
u16ALEventMask:
	.zero	2
	.globl	u16IdValue
	.section	.sbss.u16IdValue,"aw",@nobits
	.align	1
	.type	u16IdValue, @object
	.size	u16IdValue, 2
u16IdValue:
	.zero	2
	.globl	u32dummy
	.section	.sbss.u32dummy,"aw",@nobits
	.align	2
	.type	u32dummy, @object
	.size	u32dummy, 4
u32dummy:
	.zero	4
	.globl	SMActivate
	.section	.sbss.SMActivate,"aw",@nobits
	.align	2
	.type	SMActivate, @object
	.size	SMActivate, 4
SMActivate:
	.zero	4
	.globl	SyncManInfo
	.section	.sbss.SyncManInfo,"aw",@nobits
	.align	2
	.type	SyncManInfo, @object
	.size	SyncManInfo, 8
SyncManInfo:
	.zero	8
	.globl	EepromLoaded
	.section	.sbss.EepromLoaded,"aw",@nobits
	.type	EepromLoaded, @object
	.size	EepromLoaded, 1
EepromLoaded:
	.zero	1
	.section	.text.ResetALEventMask,"ax",@progbits
	.align	1
	.globl	ResetALEventMask
	.type	ResetALEventMask, @function
ResetALEventMask:
.LFB232:
	.loc 1 268 1
	.cfi_startproc
	addi	sp,sp,-48
	.cfi_def_cfa_offset 48
	sw	ra,44(sp)
	.cfi_offset 1, -4
	mv	a5,a0
	sh	a5,14(sp)
	.loc 1 269 12
	sw	zero,28(sp)
	.loc 1 270 5
	lui	a5,%hi(pEsc)
	lw	a5,%lo(pEsc)(a5)
	addi	a5,a5,516
	lw	a5,0(a5)
	sw	a5,28(sp)
	.loc 1 271 16
	lhu	a5,14(sp)
	.loc 1 271 13
	lw	a4,28(sp)
	and	a5,a4,a5
	sw	a5,28(sp)
	.loc 1 275 5
	call	DISABLE_ESC_INT
	.loc 1 277 5
	lui	a5,%hi(pEsc)
	lw	a5,%lo(pEsc)(a5)
	addi	a5,a5,516
	lw	a4,28(sp)
	sw	a4,0(a5)
	.loc 1 278 5
	call	ENABLE_ESC_INT
	.loc 1 279 1
	nop
	lw	ra,44(sp)
	.cfi_restore 1
	addi	sp,sp,48
	.cfi_def_cfa_offset 0
	jr	ra
	.cfi_endproc
.LFE232:
	.size	ResetALEventMask, .-ResetALEventMask
	.section	.text.SetALEventMask,"ax",@progbits
	.align	1
	.globl	SetALEventMask
	.type	SetALEventMask, @function
SetALEventMask:
.LFB233:
	.loc 1 288 1
	.cfi_startproc
	addi	sp,sp,-48
	.cfi_def_cfa_offset 48
	sw	ra,44(sp)
	.cfi_offset 1, -4
	mv	a5,a0
	sh	a5,14(sp)
	.loc 1 289 12
	sw	zero,28(sp)
	.loc 1 290 5
	lui	a5,%hi(pEsc)
	lw	a5,%lo(pEsc)(a5)
	addi	a5,a5,516
	lw	a5,0(a5)
	sw	a5,28(sp)
	.loc 1 291 16
	lhu	a5,14(sp)
	.loc 1 291 13
	lw	a4,28(sp)
	or	a5,a4,a5
	sw	a5,28(sp)
	.loc 1 294 5
	call	DISABLE_ESC_INT
	.loc 1 296 5
	lui	a5,%hi(pEsc)
	lw	a5,%lo(pEsc)(a5)
	addi	a5,a5,516
	lw	a4,28(sp)
	sw	a4,0(a5)
	.loc 1 297 5
	call	ENABLE_ESC_INT
	.loc 1 298 1
	nop
	lw	ra,44(sp)
	.cfi_restore 1
	addi	sp,sp,48
	.cfi_def_cfa_offset 0
	jr	ra
	.cfi_endproc
.LFE233:
	.size	SetALEventMask, .-SetALEventMask
	.section	.text.UpdateEEPROMLoadedState,"ax",@progbits
	.align	1
	.globl	UpdateEEPROMLoadedState
	.type	UpdateEEPROMLoadedState, @function
UpdateEEPROMLoadedState:
.LFB234:
	.loc 1 307 1
	.cfi_startproc
	addi	sp,sp,-16
	.cfi_def_cfa_offset 16
	.loc 1 308 11
	sw	zero,12(sp)
	.loc 1 310 4
	lui	a5,%hi(pEsc)
	lw	a5,%lo(pEsc)(a5)
	addi	a5,a5,1280
	lw	a5,0(a5)
	sw	a5,12(sp)
	.loc 1 314 18
	lw	a4,12(sp)
	li	a5,134217728
	and	a5,a4,a5
	.loc 1 314 8
	bne	a5,zero,.L4
	.loc 1 315 21
	lw	a4,12(sp)
	li	a5,268435456
	and	a5,a4,a5
	.loc 1 315 9
	beq	a5,zero,.L5
.L4:
	.loc 1 317 22
	lui	a5,%hi(EepromLoaded)
	sb	zero,%lo(EepromLoaded)(a5)
	j	.L6
.L5:
	.loc 1 321 22
	lui	a5,%hi(EepromLoaded)
	li	a4,1
	sb	a4,%lo(EepromLoaded)(a5)
	.loc 1 323 1
	nop
.L6:
	nop
	addi	sp,sp,16
	.cfi_def_cfa_offset 0
	jr	ra
	.cfi_endproc
.LFE234:
	.size	UpdateEEPROMLoadedState, .-UpdateEEPROMLoadedState
	.section	.text.GetSyncMan,"ax",@progbits
	.align	1
	.globl	GetSyncMan
	.type	GetSyncMan, @function
GetSyncMan:
.LFB235:
	.loc 1 344 1
	.cfi_startproc
	addi	sp,sp,-32
	.cfi_def_cfa_offset 32
	sw	ra,28(sp)
	.cfi_offset 1, -4
	mv	a5,a0
	sb	a5,15(sp)
	.loc 1 345 5
	lui	a5,%hi(pEsc)
	lw	a5,%lo(pEsc)(a5)
	lbu	a4,15(sp)
	addi	a4,a4,256
	slli	a4,a4,3
	add	a5,a5,a4
	li	a2,8
	mv	a1,a5
	lui	a5,%hi(SyncManInfo)
	addi	a0,a5,%lo(SyncManInfo)
	call	memcpy
	.loc 1 349 12
	lui	a5,%hi(SyncManInfo)
	addi	a5,a5,%lo(SyncManInfo)
	.loc 1 350 1
	mv	a0,a5
	lw	ra,28(sp)
	.cfi_restore 1
	addi	sp,sp,32
	.cfi_def_cfa_offset 0
	jr	ra
	.cfi_endproc
.LFE235:
	.size	GetSyncMan, .-GetSyncMan
	.section	.text.DisableSyncManChannel,"ax",@progbits
	.align	1
	.globl	DisableSyncManChannel
	.type	DisableSyncManChannel, @function
DisableSyncManChannel:
.LFB236:
	.loc 1 359 1
	.cfi_startproc
	addi	sp,sp,-32
	.cfi_def_cfa_offset 32
	mv	a5,a0
	sb	a5,15(sp)
	.loc 1 362 24
	li	a5,16777216
	sw	a5,24(sp)
	.loc 1 363 42
	lbu	a5,15(sp)
	zext.h	a5,a5
	slli	a5,a5,3
	zext.h	a4,a5
	.loc 1 363 12
	li	a5,4096
	addi	a5,a5,-2044
	add	a5,a4,a5
	sh	a5,30(sp)
	.loc 1 365 5
	lui	a5,%hi(pEsc)
	lw	a4,%lo(pEsc)(a5)
	lhu	a5,30(sp)
	srli	a5,a5,2
	zext.h	a5,a5
	slli	a5,a5,2
	add	a5,a4,a5
	lw	a4,24(sp)
	sw	a4,0(a5)
.L10:
	.loc 1 371 9
	lui	a5,%hi(pEsc)
	lw	a4,%lo(pEsc)(a5)
	lhu	a5,30(sp)
	srli	a5,a5,2
	zext.h	a5,a5
	slli	a5,a5,2
	add	a5,a4,a5
	lw	a5,0(a5)
	sw	a5,24(sp)
	.loc 1 372 23 discriminator 1
	lw	a4,24(sp)
	li	a5,16777216
	and	a5,a4,a5
	.loc 1 372 12 discriminator 1
	beq	a5,zero,.L10
	.loc 1 373 1
	nop
	nop
	addi	sp,sp,32
	.cfi_def_cfa_offset 0
	jr	ra
	.cfi_endproc
.LFE236:
	.size	DisableSyncManChannel, .-DisableSyncManChannel
	.section	.text.EnableSyncManChannel,"ax",@progbits
	.align	1
	.globl	EnableSyncManChannel
	.type	EnableSyncManChannel, @function
EnableSyncManChannel:
.LFB237:
	.loc 1 382 1
	.cfi_startproc
	addi	sp,sp,-32
	.cfi_def_cfa_offset 32
	mv	a5,a0
	sb	a5,15(sp)
	.loc 1 385 24
	sw	zero,24(sp)
	.loc 1 386 42
	lbu	a5,15(sp)
	zext.h	a5,a5
	slli	a5,a5,3
	zext.h	a4,a5
	.loc 1 386 12
	li	a5,4096
	addi	a5,a5,-2044
	add	a5,a4,a5
	sh	a5,30(sp)
	.loc 1 390 5
	lui	a5,%hi(pEsc)
	lw	a4,%lo(pEsc)(a5)
	lhu	a5,30(sp)
	srli	a5,a5,2
	zext.h	a5,a5
	slli	a5,a5,2
	add	a5,a4,a5
	lw	a4,24(sp)
	sw	a4,0(a5)
.L12:
	.loc 1 395 9
	lui	a5,%hi(pEsc)
	lw	a4,%lo(pEsc)(a5)
	lhu	a5,30(sp)
	srli	a5,a5,2
	zext.h	a5,a5
	slli	a5,a5,2
	add	a5,a4,a5
	lw	a5,0(a5)
	sw	a5,24(sp)
	.loc 1 396 22 discriminator 1
	lw	a4,24(sp)
	li	a5,16777216
	and	a5,a4,a5
	.loc 1 396 12 discriminator 1
	bne	a5,zero,.L12
	.loc 1 397 1
	nop
	nop
	addi	sp,sp,32
	.cfi_def_cfa_offset 0
	jr	ra
	.cfi_endproc
.LFE237:
	.size	EnableSyncManChannel, .-EnableSyncManChannel
	.section	.text.CheckSmSettings,"ax",@progbits
	.align	1
	.globl	CheckSmSettings
	.type	CheckSmSettings, @function
CheckSmSettings:
.LFB238:
	.loc 1 412 1
	.cfi_startproc
	addi	sp,sp,-48
	.cfi_def_cfa_offset 48
	sw	ra,44(sp)
	.cfi_offset 1, -4
	mv	a5,a0
	sb	a5,15(sp)
	.loc 1 414 11
	sb	zero,30(sp)
	.loc 1 416 12
	sh	zero,28(sp)
	.loc 1 417 12
	sh	zero,26(sp)
	.loc 1 421 29
	lui	a5,%hi(nMaxEscAddress)
	lhu	a4,%lo(nMaxEscAddress)(a5)
	.loc 1 421 12
	li	a5,12288
	addi	a5,a5,-2
	bleu	a4,a5,.L14
	.loc 1 422 32
	lui	a5,%hi(nMaxEscAddress)
	lhu	a4,%lo(nMaxEscAddress)(a5)
	.loc 1 422 13
	li	a5,12288
	addi	a5,a5,-2
	bleu	a4,a5,.L14
	.loc 1 423 32
	lui	a5,%hi(nMaxEscAddress)
	lhu	a4,%lo(nMaxEscAddress)(a5)
	.loc 1 423 13
	li	a5,12288
	addi	a5,a5,-2
	bleu	a4,a5,.L14
	.loc 1 424 32
	lui	a5,%hi(nMaxEscAddress)
	lhu	a4,%lo(nMaxEscAddress)(a5)
	.loc 1 424 13
	li	a5,12288
	addi	a5,a5,-2
	bgtu	a4,a5,.L15
.L14:
	.loc 1 430 24
	li	a5,20
	j	.L16
.L15:
	.loc 1 434 16
	li	a0,0
	call	GetSyncMan
	sw	a0,20(sp)
	.loc 1 436 34
	lw	a5,20(sp)
	lbu	a4,0(a5)
	lbu	a3,1(a5)
	slli	a3,a3,8
	or	a4,a3,a4
	lbu	a3,2(a5)
	slli	a3,a3,16
	or	a4,a3,a4
	lbu	a5,3(a5)
	slli	a5,a5,24
	or	a5,a5,a4
	.loc 1 436 68
	srli	a5,a5,16
	.loc 1 436 14
	sh	a5,28(sp)
	.loc 1 437 34
	lw	a5,20(sp)
	lbu	a4,0(a5)
	lbu	a3,1(a5)
	slli	a3,a3,8
	or	a4,a3,a4
	lbu	a3,2(a5)
	slli	a3,a3,16
	or	a4,a3,a4
	lbu	a5,3(a5)
	slli	a5,a5,24
	or	a5,a5,a4
	.loc 1 437 15
	sh	a5,26(sp)
	.loc 1 440 29
	lw	a5,20(sp)
	lbu	a4,4(a5)
	lbu	a3,5(a5)
	slli	a3,a3,8
	or	a4,a3,a4
	lbu	a3,6(a5)
	slli	a3,a3,16
	or	a4,a3,a4
	lbu	a5,7(a5)
	slli	a5,a5,24
	or	a5,a5,a4
	mv	a4,a5
	.loc 1 440 58
	li	a5,65536
	and	a5,a4,a5
	.loc 1 440 8
	bne	a5,zero,.L17
	.loc 1 443 16
	li	a5,22
	sb	a5,30(sp)
	j	.L18
.L17:
	.loc 1 445 33
	lw	a5,20(sp)
	lbu	a4,4(a5)
	lbu	a3,5(a5)
	slli	a3,a3,8
	or	a4,a3,a4
	lbu	a3,6(a5)
	slli	a3,a3,16
	or	a4,a3,a4
	lbu	a5,7(a5)
	slli	a5,a5,24
	or	a5,a5,a4
	.loc 1 445 61
	andi	a4,a5,12
	.loc 1 445 13
	li	a5,4
	beq	a4,a5,.L19
	.loc 1 448 16
	li	a5,22
	sb	a5,30(sp)
	j	.L18
.L19:
	.loc 1 450 33
	lw	a5,20(sp)
	lbu	a4,4(a5)
	lbu	a3,5(a5)
	slli	a3,a3,8
	or	a4,a3,a4
	lbu	a3,6(a5)
	slli	a3,a3,16
	or	a4,a3,a4
	lbu	a5,7(a5)
	slli	a5,a5,24
	or	a5,a5,a4
	.loc 1 450 61
	andi	a5,a5,2
	.loc 1 450 13
	bne	a5,zero,.L20
	.loc 1 453 16
	li	a5,22
	sb	a5,30(sp)
	j	.L18
.L20:
	.loc 1 455 13
	lhu	a4,28(sp)
	li	a5,35
	bgtu	a4,a5,.L21
	.loc 1 458 16
	li	a5,22
	sb	a5,30(sp)
	j	.L18
.L21:
	.loc 1 460 13
	lhu	a4,28(sp)
	li	a5,128
	bleu	a4,a5,.L22
	.loc 1 463 16
	li	a5,22
	sb	a5,30(sp)
	j	.L18
.L22:
	.loc 1 465 13
	lhu	a4,26(sp)
	li	a5,4096
	bgeu	a4,a5,.L23
	.loc 1 468 16
	li	a5,22
	sb	a5,30(sp)
	j	.L18
.L23:
	.loc 1 470 13
	lhu	a4,26(sp)
	li	a5,12288
	bltu	a4,a5,.L18
	.loc 1 473 16
	li	a5,22
	sb	a5,30(sp)
.L18:
	.loc 1 477 8
	lbu	a5,30(sp)
	bne	a5,zero,.L24
	.loc 1 480 20
	li	a0,1
	call	GetSyncMan
	sw	a0,20(sp)
	.loc 1 482 34
	lw	a5,20(sp)
	lbu	a4,0(a5)
	lbu	a3,1(a5)
	slli	a3,a3,8
	or	a4,a3,a4
	lbu	a3,2(a5)
	slli	a3,a3,16
	or	a4,a3,a4
	lbu	a5,3(a5)
	slli	a5,a5,24
	or	a5,a5,a4
	.loc 1 482 68
	srli	a5,a5,16
	.loc 1 482 14
	sh	a5,28(sp)
	.loc 1 483 34
	lw	a5,20(sp)
	lbu	a4,0(a5)
	lbu	a3,1(a5)
	slli	a3,a3,8
	or	a4,a3,a4
	lbu	a3,2(a5)
	slli	a3,a3,16
	or	a4,a3,a4
	lbu	a5,3(a5)
	slli	a5,a5,24
	or	a5,a5,a4
	.loc 1 483 15
	sh	a5,26(sp)
	.loc 1 486 29
	lw	a5,20(sp)
	lbu	a4,4(a5)
	lbu	a3,5(a5)
	slli	a3,a3,8
	or	a4,a3,a4
	lbu	a3,6(a5)
	slli	a3,a3,16
	or	a4,a3,a4
	lbu	a5,7(a5)
	slli	a5,a5,24
	or	a5,a5,a4
	mv	a4,a5
	.loc 1 486 58
	li	a5,65536
	and	a5,a4,a5
	.loc 1 486 8
	bne	a5,zero,.L25
	.loc 1 489 16
	li	a5,22
	sb	a5,30(sp)
	j	.L24
.L25:
	.loc 1 491 33
	lw	a5,20(sp)
	lbu	a4,4(a5)
	lbu	a3,5(a5)
	slli	a3,a3,8
	or	a4,a3,a4
	lbu	a3,6(a5)
	slli	a3,a3,16
	or	a4,a3,a4
	lbu	a5,7(a5)
	slli	a5,a5,24
	or	a5,a5,a4
	.loc 1 491 61
	andi	a5,a5,12
	.loc 1 491 13
	beq	a5,zero,.L26
	.loc 1 494 16
	li	a5,22
	sb	a5,30(sp)
	j	.L24
.L26:
	.loc 1 496 33
	lw	a5,20(sp)
	lbu	a4,4(a5)
	lbu	a3,5(a5)
	slli	a3,a3,8
	or	a4,a3,a4
	lbu	a3,6(a5)
	slli	a3,a3,16
	or	a4,a3,a4
	lbu	a5,7(a5)
	slli	a5,a5,24
	or	a5,a5,a4
	.loc 1 496 61
	andi	a5,a5,2
	.loc 1 496 13
	bne	a5,zero,.L27
	.loc 1 499 16
	li	a5,22
	sb	a5,30(sp)
	j	.L24
.L27:
	.loc 1 501 13
	lhu	a4,28(sp)
	li	a5,35
	bgtu	a4,a5,.L28
	.loc 1 504 16
	li	a5,22
	sb	a5,30(sp)
	j	.L24
.L28:
	.loc 1 506 13
	lhu	a4,28(sp)
	li	a5,128
	bleu	a4,a5,.L29
	.loc 1 509 16
	li	a5,22
	sb	a5,30(sp)
	j	.L24
.L29:
	.loc 1 511 13
	lhu	a4,26(sp)
	li	a5,4096
	bgeu	a4,a5,.L30
	.loc 1 514 16
	li	a5,22
	sb	a5,30(sp)
	j	.L24
.L30:
	.loc 1 516 13
	lhu	a4,26(sp)
	li	a5,12288
	bltu	a4,a5,.L24
	.loc 1 519 16
	li	a5,22
	sb	a5,30(sp)
.L24:
	.loc 1 523 8
	lbu	a5,30(sp)
	bne	a5,zero,.L31
	.loc 1 523 22 discriminator 1
	lbu	a4,15(sp)
	li	a5,3
	bleu	a4,a5,.L31
	.loc 1 526 22
	lui	a5,%hi(b3BufferMode)
	li	a4,1
	sb	a4,%lo(b3BufferMode)(a5)
	.loc 1 528 20
	li	a0,3
	call	GetSyncMan
	sw	a0,20(sp)
	.loc 1 530 34
	lw	a5,20(sp)
	lbu	a4,0(a5)
	lbu	a3,1(a5)
	slli	a3,a3,8
	or	a4,a3,a4
	lbu	a3,2(a5)
	slli	a3,a3,16
	or	a4,a3,a4
	lbu	a5,3(a5)
	slli	a5,a5,24
	or	a5,a5,a4
	.loc 1 530 68
	srli	a5,a5,16
	.loc 1 530 14
	sh	a5,28(sp)
	.loc 1 531 34
	lw	a5,20(sp)
	lbu	a4,0(a5)
	lbu	a3,1(a5)
	slli	a3,a3,8
	or	a4,a3,a4
	lbu	a3,2(a5)
	slli	a3,a3,16
	or	a4,a3,a4
	lbu	a5,3(a5)
	slli	a5,a5,24
	or	a5,a5,a4
	.loc 1 531 15
	sh	a5,26(sp)
	.loc 1 534 28
	lw	a5,20(sp)
	lbu	a4,4(a5)
	lbu	a3,5(a5)
	slli	a3,a3,8
	or	a4,a3,a4
	lbu	a3,6(a5)
	slli	a3,a3,16
	or	a4,a3,a4
	lbu	a5,7(a5)
	slli	a5,a5,24
	or	a5,a5,a4
	mv	a4,a5
	.loc 1 534 57
	li	a5,65536
	and	a5,a4,a5
	.loc 1 534 8
	beq	a5,zero,.L32
	.loc 1 534 89 discriminator 1
	lhu	a5,28(sp)
	bne	a5,zero,.L32
	.loc 1 537 16
	li	a5,3
	sb	a5,30(sp)
	j	.L33
.L32:
	.loc 1 539 36
	lw	a5,20(sp)
	lbu	a4,4(a5)
	lbu	a3,5(a5)
	slli	a3,a3,8
	or	a4,a3,a4
	lbu	a3,6(a5)
	slli	a3,a3,16
	or	a4,a3,a4
	lbu	a5,7(a5)
	slli	a5,a5,24
	or	a5,a5,a4
	mv	a4,a5
	.loc 1 539 65
	li	a5,65536
	and	a5,a4,a5
	.loc 1 539 17
	beq	a5,zero,.L34
	.loc 1 542 30
	lui	a5,%hi(nPdInputSize)
	lhu	a5,%lo(nPdInputSize)(a5)
	.loc 1 542 20
	lhu	a4,28(sp)
	bne	a4,a5,.L35
	.loc 1 542 62 discriminator 1
	lui	a5,%hi(nPdInputSize)
	lhu	a5,%lo(nPdInputSize)(a5)
	.loc 1 542 46 discriminator 1
	beq	a5,zero,.L35
	.loc 1 542 67 discriminator 2
	lhu	a4,28(sp)
	li	a5,64
	bleu	a4,a5,.L36
.L35:
	.loc 1 545 28
	li	a5,1
	sb	a5,30(sp)
	j	.L33
.L36:
	.loc 1 550 44
	lw	a5,20(sp)
	lbu	a4,4(a5)
	lbu	a3,5(a5)
	slli	a3,a3,8
	or	a4,a3,a4
	lbu	a3,6(a5)
	slli	a3,a3,16
	or	a4,a3,a4
	lbu	a5,7(a5)
	slli	a5,a5,24
	or	a5,a5,a4
	.loc 1 550 72
	andi	a5,a5,12
	.loc 1 550 24
	bne	a5,zero,.L38
	.loc 1 553 41
	lui	a5,%hi(nAlStatus)
	lbu	a4,%lo(nAlStatus)(a5)
	.loc 1 553 28
	li	a5,2
	bne	a4,a5,.L39
	.loc 1 553 57 discriminator 1
	lhu	a4,26(sp)
	li	a5,4096
	bltu	a4,a5,.L39
	.loc 1 553 95 discriminator 2
	lhu	a4,26(sp)
	li	a5,12288
	bltu	a4,a5,.L40
.L39:
	.loc 1 554 44
	lui	a5,%hi(nAlStatus)
	lbu	a4,%lo(nAlStatus)(a5)
	.loc 1 554 29
	li	a5,2
	beq	a4,a5,.L41
	.loc 1 554 74 discriminator 1
	lui	a5,%hi(nEscAddrInputData)
	lhu	a5,%lo(nEscAddrInputData)(a5)
	.loc 1 554 60 discriminator 1
	lhu	a4,26(sp)
	bne	a4,a5,.L41
.L40:
	.loc 1 559 56
	lw	a5,20(sp)
	lbu	a4,4(a5)
	lbu	a3,5(a5)
	slli	a3,a3,8
	or	a4,a3,a4
	lbu	a3,6(a5)
	slli	a3,a3,16
	or	a4,a3,a4
	lbu	a5,7(a5)
	slli	a5,a5,24
	or	a5,a5,a4
	.loc 1 559 84
	andi	a5,a5,2
	.loc 1 559 36
	beq	a5,zero,.L33
	.loc 1 562 50
	lui	a5,%hi(b3BufferMode)
	sb	zero,%lo(b3BufferMode)(a5)
	.loc 1 559 36
	j	.L33
.L41:
	.loc 1 568 36
	li	a5,2
	sb	a5,30(sp)
	j	.L33
.L38:
	.loc 1 574 32
	li	a5,3
	sb	a5,30(sp)
	j	.L33
.L34:
	.loc 1 578 17
	lhu	a5,28(sp)
	bne	a5,zero,.L44
	.loc 1 578 48 discriminator 1
	lui	a5,%hi(nPdInputSize)
	lhu	a5,%lo(nPdInputSize)(a5)
	.loc 1 578 32 discriminator 1
	beq	a5,zero,.L33
.L44:
	.loc 1 581 20
	li	a5,1
	sb	a5,30(sp)
.L33:
	.loc 1 586 12
	lbu	a5,30(sp)
	beq	a5,zero,.L31
	.loc 1 588 20
	li	a5,30
	sb	a5,30(sp)
.L31:
	.loc 1 594 8
	lbu	a5,30(sp)
	bne	a5,zero,.L45
	.loc 1 594 21 discriminator 1
	lbu	a4,15(sp)
	li	a5,2
	bleu	a4,a5,.L45
	.loc 1 597 20
	li	a0,2
	call	GetSyncMan
	sw	a0,20(sp)
	.loc 1 599 38
	lw	a5,20(sp)
	lbu	a4,0(a5)
	lbu	a3,1(a5)
	slli	a3,a3,8
	or	a4,a3,a4
	lbu	a3,2(a5)
	slli	a3,a3,16
	or	a4,a3,a4
	lbu	a5,3(a5)
	slli	a5,a5,24
	or	a5,a5,a4
	.loc 1 599 72
	srli	a5,a5,16
	.loc 1 599 18
	sh	a5,28(sp)
	.loc 1 600 38
	lw	a5,20(sp)
	lbu	a4,0(a5)
	lbu	a3,1(a5)
	slli	a3,a3,8
	or	a4,a3,a4
	lbu	a3,2(a5)
	slli	a3,a3,16
	or	a4,a3,a4
	lbu	a5,3(a5)
	slli	a5,a5,24
	or	a5,a5,a4
	.loc 1 600 19
	sh	a5,26(sp)
	.loc 1 603 28
	lw	a5,20(sp)
	lbu	a4,4(a5)
	lbu	a3,5(a5)
	slli	a3,a3,8
	or	a4,a3,a4
	lbu	a3,6(a5)
	slli	a3,a3,16
	or	a4,a3,a4
	lbu	a5,7(a5)
	slli	a5,a5,24
	or	a5,a5,a4
	mv	a4,a5
	.loc 1 603 57
	li	a5,65536
	and	a5,a4,a5
	.loc 1 603 8
	beq	a5,zero,.L46
	.loc 1 603 89 discriminator 1
	lhu	a5,28(sp)
	bne	a5,zero,.L46
	.loc 1 606 16
	li	a5,3
	sb	a5,30(sp)
	j	.L47
.L46:
	.loc 1 608 36
	lw	a5,20(sp)
	lbu	a4,4(a5)
	lbu	a3,5(a5)
	slli	a3,a3,8
	or	a4,a3,a4
	lbu	a3,6(a5)
	slli	a3,a3,16
	or	a4,a3,a4
	lbu	a5,7(a5)
	slli	a5,a5,24
	or	a5,a5,a4
	mv	a4,a5
	.loc 1 608 65
	li	a5,65536
	and	a5,a4,a5
	.loc 1 608 17
	beq	a5,zero,.L48
	.loc 1 611 27
	lui	a5,%hi(nPdOutputSize)
	lhu	a5,%lo(nPdOutputSize)(a5)
	.loc 1 611 16
	lhu	a4,28(sp)
	bne	a4,a5,.L49
	.loc 1 611 61 discriminator 1
	lui	a5,%hi(nPdOutputSize)
	lhu	a5,%lo(nPdOutputSize)(a5)
	.loc 1 611 44 discriminator 1
	beq	a5,zero,.L49
	.loc 1 611 66 discriminator 2
	lhu	a4,28(sp)
	li	a5,64
	bgtu	a4,a5,.L49
	.loc 1 614 41
	lw	a5,20(sp)
	lbu	a4,4(a5)
	lbu	a3,5(a5)
	slli	a3,a3,8
	or	a4,a3,a4
	lbu	a3,6(a5)
	slli	a3,a3,16
	or	a4,a3,a4
	lbu	a5,7(a5)
	slli	a5,a5,24
	or	a5,a5,a4
	.loc 1 614 69
	andi	a4,a5,12
	.loc 1 614 20
	li	a5,4
	bne	a4,a5,.L50
	.loc 1 617 40
	lui	a5,%hi(nAlStatus)
	lbu	a4,%lo(nAlStatus)(a5)
	.loc 1 617 24
	li	a5,2
	bne	a4,a5,.L51
	.loc 1 617 56 discriminator 1
	lhu	a4,26(sp)
	li	a5,4096
	bltu	a4,a5,.L51
	.loc 1 617 95 discriminator 2
	lhu	a4,26(sp)
	li	a5,12288
	bltu	a4,a5,.L52
.L51:
	.loc 1 618 40
	lui	a5,%hi(nAlStatus)
	lbu	a4,%lo(nAlStatus)(a5)
	.loc 1 618 24
	li	a5,2
	beq	a4,a5,.L53
	.loc 1 618 70 discriminator 1
	lui	a5,%hi(nEscAddrOutputData)
	lhu	a5,%lo(nEscAddrOutputData)(a5)
	.loc 1 618 56 discriminator 1
	lhu	a4,26(sp)
	bne	a4,a5,.L53
.L52:
	.loc 1 624 51
	lw	a5,20(sp)
	lbu	a4,4(a5)
	lbu	a3,5(a5)
	slli	a3,a3,8
	or	a4,a3,a4
	lbu	a3,6(a5)
	slli	a3,a3,16
	or	a4,a3,a4
	lbu	a5,7(a5)
	slli	a5,a5,24
	or	a5,a5,a4
	.loc 1 624 79
	andi	a5,a5,64
	.loc 1 624 32
	beq	a5,zero,.L54
	.loc 1 626 44
	lui	a5,%hi(bWdTrigger)
	li	a4,1
	sb	a4,%lo(bWdTrigger)(a5)
	j	.L55
.L54:
	.loc 1 630 44
	lui	a5,%hi(bWdTrigger)
	sb	zero,%lo(bWdTrigger)(a5)
.L55:
	.loc 1 633 52
	lw	a5,20(sp)
	lbu	a4,4(a5)
	lbu	a3,5(a5)
	slli	a3,a3,8
	or	a4,a3,a4
	lbu	a3,6(a5)
	slli	a3,a3,16
	or	a4,a3,a4
	lbu	a5,7(a5)
	slli	a5,a5,24
	or	a5,a5,a4
	.loc 1 633 80
	andi	a5,a5,2
	.loc 1 633 32
	beq	a5,zero,.L58
	.loc 1 636 46
	lui	a5,%hi(b3BufferMode)
	sb	zero,%lo(b3BufferMode)(a5)
	.loc 1 633 32
	j	.L58
.L53:
	.loc 1 643 32
	li	a5,2
	sb	a5,30(sp)
	.loc 1 614 20
	j	.L47
.L50:
	.loc 1 649 28
	li	a5,3
	sb	a5,30(sp)
	.loc 1 614 20
	j	.L47
.L58:
	j	.L47
.L49:
	.loc 1 655 24
	li	a5,1
	sb	a5,30(sp)
	j	.L47
.L48:
	.loc 1 658 17
	lhu	a5,28(sp)
	bne	a5,zero,.L60
	.loc 1 658 49 discriminator 1
	lui	a5,%hi(nPdOutputSize)
	lhu	a5,%lo(nPdOutputSize)(a5)
	.loc 1 658 32 discriminator 1
	beq	a5,zero,.L47
.L60:
	.loc 1 661 20
	li	a5,1
	sb	a5,30(sp)
.L47:
	.loc 1 664 12
	lbu	a5,30(sp)
	beq	a5,zero,.L45
	.loc 1 666 20
	li	a5,29
	sb	a5,30(sp)
.L45:
	.loc 1 671 8
	lbu	a5,30(sp)
	bne	a5,zero,.L61
	.loc 1 674 16
	lbu	a5,15(sp)
	sb	a5,31(sp)
	.loc 1 674 9
	j	.L62
.L63:
	.loc 1 676 24
	lbu	a5,31(sp)
	mv	a0,a5
	call	GetSyncMan
	sw	a0,20(sp)
	.loc 1 677 44
	lw	a5,20(sp)
	lbu	a4,4(a5)
	lbu	a3,5(a5)
	slli	a3,a3,8
	or	a4,a3,a4
	lbu	a3,6(a5)
	slli	a3,a3,16
	or	a4,a3,a4
	lbu	a5,7(a5)
	slli	a5,a5,24
	or	a5,a5,a4
	mv	a4,a5
	.loc 1 677 24
	lui	a5,%hi(SMActivate)
	sw	a4,%lo(SMActivate)(a5)
	.loc 1 674 48 discriminator 3
	lbu	a5,31(sp)
	addi	a5,a5,1
	sb	a5,31(sp)
.L62:
	.loc 1 674 32 discriminator 1
	lui	a5,%hi(nMaxSyncMan)
	lbu	a5,%lo(nMaxSyncMan)(a5)
	lbu	a4,31(sp)
	bltu	a4,a5,.L63
.L61:
	.loc 1 680 12
	lbu	a5,30(sp)
.L16:
	.loc 1 681 1
	mv	a0,a5
	lw	ra,44(sp)
	.cfi_restore 1
	addi	sp,sp,48
	.cfi_def_cfa_offset 0
	jr	ra
	.cfi_endproc
.LFE238:
	.size	CheckSmSettings, .-CheckSmSettings
	.section	.text.StartInputHandler,"ax",@progbits
	.align	1
	.globl	StartInputHandler
	.type	StartInputHandler, @function
StartInputHandler:
.LFB239:
	.loc 1 696 1
	.cfi_startproc
	addi	sp,sp,-96
	.cfi_def_cfa_offset 96
	sw	ra,92(sp)
	.cfi_offset 1, -4
	.loc 1 701 16
	sh	zero,68(sp)
	.loc 1 702 16
	sh	zero,66(sp)
	.loc 1 703 16
	sw	zero,60(sp)
	.loc 1 704 16
	sw	zero,56(sp)
	.loc 1 705 10
	sb	zero,79(sp)
	.loc 1 707 15
	li	a5,3
	sh	a5,76(sp)
	.loc 1 709 15
	li	a5,3
	sh	a5,74(sp)
	.loc 1 711 12
	sh	zero,72(sp)
	.loc 1 712 12
	sh	zero,70(sp)
	.loc 1 714 12
	li	a5,-1
	sh	a5,54(sp)
	.loc 1 716 41
	lui	a5,%hi(sSyncManOutPar)
	addi	a5,a5,%lo(sSyncManOutPar)
	lbu	a4,12(a5)
	lbu	a5,13(a5)
	slli	a5,a5,8
	or	a5,a5,a4
	zext.h	a5,a5
	.loc 1 716 24
	lhu	a4,54(sp)
	and	a5,a5,a4
	sh	a5,54(sp)
	.loc 1 717 40
	lui	a5,%hi(sSyncManInPar)
	addi	a5,a5,%lo(sSyncManInPar)
	lbu	a4,12(a5)
	lbu	a5,13(a5)
	slli	a5,a5,8
	or	a5,a5,a4
	zext.h	a5,a5
	.loc 1 717 24
	lhu	a4,54(sp)
	and	a5,a5,a4
	sh	a5,54(sp)
	.loc 1 719 20
	lui	a5,%hi(u16ALEventMask)
	sh	zero,%lo(u16ALEventMask)(a5)
	.loc 1 725 31
	lui	a5,%hi(bEcatFirstOutputsReceived)
	sb	zero,%lo(bEcatFirstOutputsReceived)(a5)
	.loc 1 728 16
	li	a0,2
	call	GetSyncMan
	sw	a0,48(sp)
	.loc 1 730 44
	lw	a5,48(sp)
	lbu	a4,0(a5)
	lbu	a3,1(a5)
	slli	a3,a3,8
	or	a4,a3,a4
	lbu	a3,2(a5)
	slli	a3,a3,16
	or	a4,a3,a4
	lbu	a5,3(a5)
	slli	a5,a5,24
	or	a5,a5,a4
	.loc 1 730 26
	zext.h	a4,a5
	.loc 1 730 24
	lui	a5,%hi(nEscAddrOutputData)
	sh	a4,%lo(nEscAddrOutputData)(a5)
	.loc 1 732 27
	lw	a5,48(sp)
	lbu	a4,4(a5)
	lbu	a3,5(a5)
	slli	a3,a3,8
	or	a4,a3,a4
	lbu	a3,6(a5)
	slli	a3,a3,16
	or	a4,a3,a4
	lbu	a5,7(a5)
	slli	a5,a5,24
	or	a5,a5,a4
	.loc 1 732 55
	andi	a5,a5,2
	.loc 1 732 8
	beq	a5,zero,.L65
	.loc 1 734 24
	li	a5,1
	sh	a5,74(sp)
.L65:
	.loc 1 739 16
	li	a0,3
	call	GetSyncMan
	sw	a0,48(sp)
	.loc 1 741 43
	lw	a5,48(sp)
	lbu	a4,0(a5)
	lbu	a3,1(a5)
	slli	a3,a3,8
	or	a4,a3,a4
	lbu	a3,2(a5)
	slli	a3,a3,16
	or	a4,a3,a4
	lbu	a5,3(a5)
	slli	a5,a5,24
	or	a5,a5,a4
	.loc 1 741 25
	zext.h	a4,a5
	.loc 1 741 23
	lui	a5,%hi(nEscAddrInputData)
	sh	a4,%lo(nEscAddrInputData)(a5)
	.loc 1 745 27
	lw	a5,48(sp)
	lbu	a4,4(a5)
	lbu	a3,5(a5)
	slli	a3,a3,8
	or	a4,a3,a4
	lbu	a3,6(a5)
	slli	a3,a3,16
	or	a4,a3,a4
	lbu	a5,7(a5)
	slli	a5,a5,24
	or	a5,a5,a4
	.loc 1 745 55
	andi	a5,a5,2
	.loc 1 745 8
	beq	a5,zero,.L66
	.loc 1 747 24
	li	a5,1
	sh	a5,76(sp)
.L66:
	.loc 1 752 29
	lui	a5,%hi(nEscAddrInputData)
	lhu	a5,%lo(nEscAddrInputData)(a5)
	mv	a4,a5
	.loc 1 752 44
	lui	a5,%hi(nPdInputSize)
	lhu	a5,%lo(nPdInputSize)(a5)
	mv	a3,a5
	lhu	a5,76(sp)
	mul	a5,a3,a5
	.loc 1 752 29
	add	a5,a4,a5
	.loc 1 752 62
	lui	a4,%hi(u16EscAddrSendMbx)
	lhu	a4,%lo(u16EscAddrSendMbx)(a4)
	.loc 1 752 8
	ble	a5,a4,.L67
	.loc 1 752 104 discriminator 1
	lui	a5,%hi(nEscAddrInputData)
	lhu	a5,%lo(nEscAddrInputData)(a5)
	mv	a4,a5
	.loc 1 752 125 discriminator 1
	lui	a5,%hi(u16EscAddrSendMbx)
	lhu	a5,%lo(u16EscAddrSendMbx)(a5)
	mv	a3,a5
	lui	a5,%hi(u16SendMbxSize)
	lhu	a5,%lo(u16SendMbxSize)(a5)
	add	a5,a3,a5
	.loc 1 752 82 discriminator 1
	blt	a4,a5,.L68
.L67:
	.loc 1 753 31
	lui	a5,%hi(nEscAddrInputData)
	lhu	a5,%lo(nEscAddrInputData)(a5)
	mv	a4,a5
	.loc 1 753 46
	lui	a5,%hi(nPdInputSize)
	lhu	a5,%lo(nPdInputSize)(a5)
	mv	a3,a5
	lhu	a5,76(sp)
	mul	a5,a3,a5
	.loc 1 753 31
	add	a5,a4,a5
	.loc 1 753 64
	lui	a4,%hi(u16EscAddrReceiveMbx)
	lhu	a4,%lo(u16EscAddrReceiveMbx)(a4)
	.loc 1 753 8
	ble	a5,a4,.L69
	.loc 1 753 109 discriminator 1
	lui	a5,%hi(nEscAddrInputData)
	lhu	a5,%lo(nEscAddrInputData)(a5)
	mv	a4,a5
	.loc 1 753 133 discriminator 1
	lui	a5,%hi(u16EscAddrReceiveMbx)
	lhu	a5,%lo(u16EscAddrReceiveMbx)(a5)
	mv	a3,a5
	lui	a5,%hi(u16ReceiveMbxSize)
	lhu	a5,%lo(u16ReceiveMbxSize)(a5)
	add	a5,a3,a5
	.loc 1 753 87 discriminator 1
	bge	a4,a5,.L69
.L68:
	.loc 1 756 16
	li	a5,30
	j	.L70
.L69:
	.loc 1 760 30
	lui	a5,%hi(nEscAddrOutputData)
	lhu	a5,%lo(nEscAddrOutputData)(a5)
	mv	a4,a5
	.loc 1 760 46
	lui	a5,%hi(nPdOutputSize)
	lhu	a5,%lo(nPdOutputSize)(a5)
	mv	a3,a5
	lhu	a5,74(sp)
	mul	a5,a3,a5
	.loc 1 760 30
	add	a5,a4,a5
	.loc 1 760 65
	lui	a4,%hi(u16EscAddrSendMbx)
	lhu	a4,%lo(u16EscAddrSendMbx)(a4)
	.loc 1 759 8
	ble	a5,a4,.L71
	.loc 1 760 108
	lui	a5,%hi(nEscAddrOutputData)
	lhu	a5,%lo(nEscAddrOutputData)(a5)
	mv	a4,a5
	.loc 1 760 129
	lui	a5,%hi(u16EscAddrSendMbx)
	lhu	a5,%lo(u16EscAddrSendMbx)(a5)
	mv	a3,a5
	lui	a5,%hi(u16SendMbxSize)
	lhu	a5,%lo(u16SendMbxSize)(a5)
	add	a5,a3,a5
	.loc 1 760 85
	blt	a4,a5,.L72
.L71:
	.loc 1 761 32
	lui	a5,%hi(nEscAddrOutputData)
	lhu	a5,%lo(nEscAddrOutputData)(a5)
	mv	a4,a5
	.loc 1 761 48
	lui	a5,%hi(nPdOutputSize)
	lhu	a5,%lo(nPdOutputSize)(a5)
	mv	a3,a5
	lhu	a5,74(sp)
	mul	a5,a3,a5
	.loc 1 761 32
	add	a5,a4,a5
	.loc 1 761 67
	lui	a4,%hi(u16EscAddrReceiveMbx)
	lhu	a4,%lo(u16EscAddrReceiveMbx)(a4)
	.loc 1 761 9
	ble	a5,a4,.L73
	.loc 1 761 113 discriminator 1
	lui	a5,%hi(nEscAddrOutputData)
	lhu	a5,%lo(nEscAddrOutputData)(a5)
	mv	a4,a5
	.loc 1 761 137 discriminator 1
	lui	a5,%hi(u16EscAddrReceiveMbx)
	lhu	a5,%lo(u16EscAddrReceiveMbx)(a5)
	mv	a3,a5
	lui	a5,%hi(u16ReceiveMbxSize)
	lhu	a5,%lo(u16ReceiveMbxSize)(a5)
	add	a5,a3,a5
	.loc 1 761 90 discriminator 1
	blt	a4,a5,.L72
.L73:
	.loc 1 763 30
	lui	a5,%hi(nEscAddrOutputData)
	lhu	a5,%lo(nEscAddrOutputData)(a5)
	mv	a4,a5
	.loc 1 763 46
	lui	a5,%hi(nPdOutputSize)
	lhu	a5,%lo(nPdOutputSize)(a5)
	mv	a3,a5
	lhu	a5,74(sp)
	mul	a5,a3,a5
	.loc 1 763 30
	add	a5,a4,a5
	.loc 1 763 65
	lui	a4,%hi(nEscAddrInputData)
	lhu	a4,%lo(nEscAddrInputData)(a4)
	.loc 1 762 9
	ble	a5,a4,.L74
	.loc 1 763 108
	lui	a5,%hi(nEscAddrOutputData)
	lhu	a5,%lo(nEscAddrOutputData)(a5)
	mv	a4,a5
	.loc 1 763 129
	lui	a5,%hi(nEscAddrInputData)
	lhu	a5,%lo(nEscAddrInputData)(a5)
	mv	a3,a5
	lui	a5,%hi(nPdInputSize)
	lhu	a5,%lo(nPdInputSize)(a5)
	add	a5,a3,a5
	.loc 1 763 85
	bge	a4,a5,.L74
.L72:
	.loc 1 769 16
	li	a5,29
	j	.L70
.L74:
	.loc 1 778 5
	lui	a5,%hi(pEsc)
	lw	a4,%lo(pEsc)(a5)
	li	a5,4096
	addi	a5,a5,-1664
	add	a5,a4,a5
	lw	a5,0(a5)
	sw	a5,44(sp)
	.loc 1 780 15
	lw	a5,44(sp)
	zext.h	a5,a5
	sw	a5,44(sp)
	.loc 1 783 9
	lui	a5,%hi(pEsc)
	lw	a4,%lo(pEsc)(a5)
	li	a5,4096
	addi	a5,a5,-1632
	add	a5,a4,a5
	lw	a5,0(a5)
	sw	a5,60(sp)
	.loc 1 787 9
	lui	a5,%hi(pEsc)
	lw	a4,%lo(pEsc)(a5)
	li	a5,4096
	addi	a5,a5,-1628
	add	a5,a4,a5
	lw	a5,0(a5)
	sw	a5,56(sp)
	.loc 1 791 20
	lui	a5,%hi(sSyncManOutPar)
	addi	a5,a5,%lo(sSyncManOutPar)
	lbu	a4,2(a5)
	lbu	a5,3(a5)
	slli	a5,a5,8
	or	a5,a5,a4
	sh	a5,72(sp)
	.loc 1 792 20
	lui	a5,%hi(sSyncManInPar)
	addi	a5,a5,%lo(sSyncManInPar)
	lbu	a4,2(a5)
	lbu	a5,3(a5)
	slli	a5,a5,8
	or	a5,a5,a4
	sh	a5,70(sp)
	.loc 1 801 19
	lw	a4,44(sp)
	li	a5,4096
	addi	a5,a5,-1792
	and	a5,a4,a5
	.loc 1 801 7
	beq	a5,zero,.L75
	.loc 1 804 23
	lw	a5,44(sp)
	andi	a5,a5,1536
	.loc 1 804 11
	bne	a5,zero,.L76
	.loc 1 806 20
	li	a5,48
	j	.L70
.L76:
	.loc 1 810 24
	lw	a5,44(sp)
	andi	a5,a5,512
	.loc 1 810 11
	bne	a5,zero,.L77
	.loc 1 811 28
	lw	a5,44(sp)
	andi	a5,a5,1024
	.loc 1 811 13
	beq	a5,zero,.L77
	.loc 1 813 20
	li	a5,48
	j	.L70
.L77:
	.loc 1 816 11
	lhu	a5,54(sp)
	beq	a5,zero,.L78
	.loc 1 818 38
	lhu	a5,54(sp)
	andi	a5,a5,4
	.loc 1 818 15
	bne	a5,zero,.L79
	.loc 1 818 83 discriminator 1
	lw	a5,44(sp)
	andi	a5,a5,512
	.loc 1 818 68 discriminator 1
	bne	a5,zero,.L80
.L79:
	.loc 1 819 41
	lhu	a5,54(sp)
	andi	a5,a5,8
	.loc 1 819 17
	bne	a5,zero,.L78
	.loc 1 819 86 discriminator 1
	lw	a5,44(sp)
	andi	a5,a5,1024
	.loc 1 819 71 discriminator 1
	beq	a5,zero,.L78
.L80:
	.loc 1 822 24
	li	a5,48
	j	.L70
.L78:
.LBB2:
	.loc 1 827 20
	li	a5,32768
	addi	a5,a5,-1568
	sw	a5,40(sp)
	.loc 1 828 29
	lui	a5,%hi(sSyncManOutPar)
	addi	a5,a5,%lo(sSyncManOutPar)
	lbu	a4,14(a5)
	lbu	a3,15(a5)
	slli	a3,a3,8
	or	a4,a3,a4
	lbu	a3,16(a5)
	slli	a3,a3,16
	or	a4,a3,a4
	lbu	a5,17(a5)
	slli	a5,a5,24
	or	a5,a5,a4
	sw	a5,40(sp)
	.loc 1 831 16
	lw	a5,60(sp)
	beq	a5,zero,.L81
	.loc 1 831 37 discriminator 1
	lw	a4,60(sp)
	lw	a5,40(sp)
	bltu	a4,a5,.L82
	.loc 1 831 74 discriminator 2
	lw	a4,60(sp)
	li	a5,-1018167296
	bleu	a4,a5,.L81
.L82:
	.loc 1 833 28
	li	a5,54
	j	.L70
.L81:
.LBE2:
	.loc 1 839 24
	lw	a5,44(sp)
	andi	a5,a5,512
	.loc 1 839 11
	beq	a5,zero,.L83
	.loc 1 839 73 discriminator 1
	lw	a5,44(sp)
	andi	a5,a5,1024
	.loc 1 839 58 discriminator 1
	beq	a5,zero,.L83
	.loc 1 842 15
	lw	a5,56(sp)
	beq	a5,zero,.L83
	.loc 1 842 37 discriminator 1
	lw	a4,56(sp)
	lw	a5,60(sp)
	bltu	a4,a5,.L83
	.loc 1 844 37
	li	a5,1
	sb	a5,79(sp)
.L83:
	.loc 1 849 11
	lbu	a5,79(sp)
	beq	a5,zero,.L75
	.loc 1 849 56 discriminator 1
	lhu	a5,54(sp)
	andi	a5,a5,16
	.loc 1 849 32 discriminator 1
	bne	a5,zero,.L75
	.loc 1 851 21
	li	a5,48
	j	.L70
.L75:
	.loc 1 859 8
	lui	a5,%hi(bSyncSetByUser)
	lbu	a5,%lo(bSyncSetByUser)(a5)
	.loc 1 859 7
	beq	a5,zero,.L84
	.loc 1 861 23
	lw	a4,44(sp)
	li	a5,4096
	addi	a5,a5,-1792
	and	a5,a4,a5
	.loc 1 861 11
	bne	a5,zero,.L85
	.loc 1 864 15
	lhu	a4,72(sp)
	li	a5,2
	beq	a4,a5,.L86
	.loc 1 864 53 discriminator 1
	lhu	a4,72(sp)
	li	a5,3
	beq	a4,a5,.L86
	.loc 1 865 17
	lhu	a4,70(sp)
	li	a5,2
	beq	a4,a5,.L86
	.loc 1 865 56 discriminator 1
	lhu	a4,70(sp)
	li	a5,3
	bne	a4,a5,.L87
.L86:
	.loc 1 867 24
	li	a5,48
	j	.L70
.L85:
	.loc 1 872 27
	lw	a5,44(sp)
	andi	a5,a5,1024
	.loc 1 872 15
	bne	a5,zero,.L88
	.loc 1 875 19
	lhu	a4,72(sp)
	li	a5,3
	beq	a4,a5,.L89
	.loc 1 876 21
	lhu	a4,70(sp)
	li	a5,3
	bne	a4,a5,.L88
.L89:
	.loc 1 878 28
	li	a5,48
	j	.L70
.L88:
	.loc 1 882 27
	lw	a5,44(sp)
	andi	a5,a5,512
	.loc 1 882 15
	bne	a5,zero,.L87
	.loc 1 885 19
	lhu	a4,72(sp)
	li	a5,2
	beq	a4,a5,.L90
	.loc 1 886 21
	lhu	a4,70(sp)
	li	a5,2
	bne	a4,a5,.L87
.L90:
	.loc 1 888 28
	li	a5,48
	j	.L70
.L84:
	.loc 1 897 23
	lw	a4,44(sp)
	li	a5,4096
	addi	a5,a5,-1792
	and	a5,a4,a5
	.loc 1 897 11
	bne	a5,zero,.L91
	.loc 1 902 31
	lui	a5,%hi(nPdOutputSize)
	lhu	a5,%lo(nPdOutputSize)(a5)
	.loc 1 902 16
	beq	a5,zero,.L92
	.loc 1 904 32
	li	a5,1
	sh	a5,72(sp)
	.loc 1 906 34
	lui	a5,%hi(nPdInputSize)
	lhu	a5,%lo(nPdInputSize)(a5)
	.loc 1 906 20
	beq	a5,zero,.L93
	.loc 1 908 36
	li	a5,34
	sh	a5,70(sp)
	j	.L87
.L93:
	.loc 1 912 36
	sh	zero,70(sp)
	j	.L87
.L92:
	.loc 1 915 35
	lui	a5,%hi(nPdInputSize)
	lhu	a5,%lo(nPdInputSize)(a5)
	.loc 1 915 21
	beq	a5,zero,.L94
	.loc 1 917 32
	sh	zero,72(sp)
	.loc 1 918 32
	li	a5,1
	sh	a5,70(sp)
	j	.L87
.L94:
	.loc 1 922 32
	sh	zero,72(sp)
	.loc 1 923 32
	sh	zero,70(sp)
	j	.L87
.L91:
	.loc 1 929 31
	lui	a5,%hi(nPdOutputSize)
	lhu	a5,%lo(nPdOutputSize)(a5)
	.loc 1 929 16
	beq	a5,zero,.L95
	.loc 1 932 20
	lbu	a5,79(sp)
	beq	a5,zero,.L96
	.loc 1 934 36
	li	a5,3
	sh	a5,72(sp)
	j	.L97
.L96:
	.loc 1 938 36
	li	a5,2
	sh	a5,72(sp)
	j	.L97
.L95:
	.loc 1 943 32
	sh	zero,72(sp)
.L97:
	.loc 1 947 30
	lui	a5,%hi(nPdInputSize)
	lhu	a5,%lo(nPdInputSize)(a5)
	.loc 1 947 16
	beq	a5,zero,.L98
	.loc 1 949 32
	lw	a5,44(sp)
	andi	a5,a5,1024
	.loc 1 949 20
	beq	a5,zero,.L99
	.loc 1 952 36
	li	a5,3
	sh	a5,70(sp)
	j	.L87
.L99:
	.loc 1 957 36
	li	a5,2
	sh	a5,70(sp)
	j	.L87
.L98:
	.loc 1 962 32
	sh	zero,70(sp)
.L87:
	.loc 1 968 7
	lhu	a4,72(sp)
	li	a5,3
	bne	a4,a5,.L100
	.loc 1 970 42
	lui	a5,%hi(sSyncManOutPar)
	addi	a5,a5,%lo(sSyncManOutPar)
	lw	a4,60(sp)
	andi	a4,a4,255
	lbu	a3,32(a5)
	andi	a3,a3,0
	or	a4,a3,a4
	sb	a4,32(a5)
	lw	a4,60(sp)
	srli	a4,a4,8
	andi	a4,a4,255
	lbu	a3,33(a5)
	andi	a3,a3,0
	or	a4,a3,a4
	sb	a4,33(a5)
	lw	a4,60(sp)
	srli	a4,a4,16
	andi	a4,a4,255
	lbu	a3,34(a5)
	andi	a3,a3,0
	or	a4,a3,a4
	sb	a4,34(a5)
	lw	a4,60(sp)
	srli	a4,a4,24
	lbu	a3,35(a5)
	andi	a3,a3,0
	or	a4,a3,a4
	sb	a4,35(a5)
	.loc 1 971 37
	lui	a5,%hi(sSyncManOutPar)
	addi	a5,a5,%lo(sSyncManOutPar)
	lw	a4,60(sp)
	andi	a4,a4,255
	lbu	a3,4(a5)
	andi	a3,a3,0
	or	a4,a3,a4
	sb	a4,4(a5)
	lw	a4,60(sp)
	srli	a4,a4,8
	andi	a4,a4,255
	lbu	a3,5(a5)
	andi	a3,a3,0
	or	a4,a3,a4
	sb	a4,5(a5)
	lw	a4,60(sp)
	srli	a4,a4,16
	andi	a4,a4,255
	lbu	a3,6(a5)
	andi	a3,a3,0
	or	a4,a3,a4
	sb	a4,6(a5)
	lw	a4,60(sp)
	srli	a4,a4,24
	lbu	a3,7(a5)
	andi	a3,a3,0
	or	a4,a3,a4
	sb	a4,7(a5)
	.loc 1 973 41
	lui	a5,%hi(sSyncManInPar)
	addi	a5,a5,%lo(sSyncManInPar)
	lw	a4,60(sp)
	andi	a4,a4,255
	lbu	a3,32(a5)
	andi	a3,a3,0
	or	a4,a3,a4
	sb	a4,32(a5)
	lw	a4,60(sp)
	srli	a4,a4,8
	andi	a4,a4,255
	lbu	a3,33(a5)
	andi	a3,a3,0
	or	a4,a3,a4
	sb	a4,33(a5)
	lw	a4,60(sp)
	srli	a4,a4,16
	andi	a4,a4,255
	lbu	a3,34(a5)
	andi	a3,a3,0
	or	a4,a3,a4
	sb	a4,34(a5)
	lw	a4,60(sp)
	srli	a4,a4,24
	lbu	a3,35(a5)
	andi	a3,a3,0
	or	a4,a3,a4
	sb	a4,35(a5)
	.loc 1 974 36
	lui	a5,%hi(sSyncManInPar)
	addi	a5,a5,%lo(sSyncManInPar)
	lw	a4,60(sp)
	andi	a4,a4,255
	lbu	a3,4(a5)
	andi	a3,a3,0
	or	a4,a3,a4
	sb	a4,4(a5)
	lw	a4,60(sp)
	srli	a4,a4,8
	andi	a4,a4,255
	lbu	a3,5(a5)
	andi	a3,a3,0
	or	a4,a3,a4
	sb	a4,5(a5)
	lw	a4,60(sp)
	srli	a4,a4,16
	andi	a4,a4,255
	lbu	a3,6(a5)
	andi	a3,a3,0
	or	a4,a3,a4
	sb	a4,6(a5)
	lw	a4,60(sp)
	srli	a4,a4,24
	lbu	a3,7(a5)
	andi	a3,a3,0
	or	a4,a3,a4
	sb	a4,7(a5)
	j	.L101
.L100:
	.loc 1 976 12
	lhu	a4,72(sp)
	li	a5,2
	bne	a4,a5,.L101
	.loc 1 978 42
	lui	a5,%hi(sSyncManOutPar)
	addi	a5,a5,%lo(sSyncManOutPar)
	lw	a4,60(sp)
	andi	a4,a4,255
	lbu	a3,32(a5)
	andi	a3,a3,0
	or	a4,a3,a4
	sb	a4,32(a5)
	lw	a4,60(sp)
	srli	a4,a4,8
	andi	a4,a4,255
	lbu	a3,33(a5)
	andi	a3,a3,0
	or	a4,a3,a4
	sb	a4,33(a5)
	lw	a4,60(sp)
	srli	a4,a4,16
	andi	a4,a4,255
	lbu	a3,34(a5)
	andi	a3,a3,0
	or	a4,a3,a4
	sb	a4,34(a5)
	lw	a4,60(sp)
	srli	a4,a4,24
	lbu	a3,35(a5)
	andi	a3,a3,0
	or	a4,a3,a4
	sb	a4,35(a5)
	.loc 1 979 37
	lui	a5,%hi(sSyncManOutPar)
	addi	a5,a5,%lo(sSyncManOutPar)
	lw	a4,60(sp)
	andi	a4,a4,255
	lbu	a3,4(a5)
	andi	a3,a3,0
	or	a4,a3,a4
	sb	a4,4(a5)
	lw	a4,60(sp)
	srli	a4,a4,8
	andi	a4,a4,255
	lbu	a3,5(a5)
	andi	a3,a3,0
	or	a4,a3,a4
	sb	a4,5(a5)
	lw	a4,60(sp)
	srli	a4,a4,16
	andi	a4,a4,255
	lbu	a3,6(a5)
	andi	a3,a3,0
	or	a4,a3,a4
	sb	a4,6(a5)
	lw	a4,60(sp)
	srli	a4,a4,24
	lbu	a3,7(a5)
	andi	a3,a3,0
	or	a4,a3,a4
	sb	a4,7(a5)
	.loc 1 981 41
	lui	a5,%hi(sSyncManInPar)
	addi	a5,a5,%lo(sSyncManInPar)
	lw	a4,60(sp)
	andi	a4,a4,255
	lbu	a3,32(a5)
	andi	a3,a3,0
	or	a4,a3,a4
	sb	a4,32(a5)
	lw	a4,60(sp)
	srli	a4,a4,8
	andi	a4,a4,255
	lbu	a3,33(a5)
	andi	a3,a3,0
	or	a4,a3,a4
	sb	a4,33(a5)
	lw	a4,60(sp)
	srli	a4,a4,16
	andi	a4,a4,255
	lbu	a3,34(a5)
	andi	a3,a3,0
	or	a4,a3,a4
	sb	a4,34(a5)
	lw	a4,60(sp)
	srli	a4,a4,24
	lbu	a3,35(a5)
	andi	a3,a3,0
	or	a4,a3,a4
	sb	a4,35(a5)
	.loc 1 982 36
	lui	a5,%hi(sSyncManInPar)
	addi	a5,a5,%lo(sSyncManInPar)
	lw	a4,60(sp)
	andi	a4,a4,255
	lbu	a3,4(a5)
	andi	a3,a3,0
	or	a4,a3,a4
	sb	a4,4(a5)
	lw	a4,60(sp)
	srli	a4,a4,8
	andi	a4,a4,255
	lbu	a3,5(a5)
	andi	a3,a3,0
	or	a4,a3,a4
	sb	a4,5(a5)
	lw	a4,60(sp)
	srli	a4,a4,16
	andi	a4,a4,255
	lbu	a3,6(a5)
	andi	a3,a3,0
	or	a4,a3,a4
	sb	a4,6(a5)
	lw	a4,60(sp)
	srli	a4,a4,24
	lbu	a3,7(a5)
	andi	a3,a3,0
	or	a4,a3,a4
	sb	a4,7(a5)
.L101:
	.loc 1 986 10
	lui	a5,%hi(b3BufferMode)
	lbu	a5,%lo(b3BufferMode)(a5)
	.loc 1 986 8
	bne	a5,zero,.L102
	.loc 1 989 12
	lhu	a5,72(sp)
	beq	a5,zero,.L103
	.loc 1 989 52 discriminator 1
	lhu	a5,70(sp)
	bne	a5,zero,.L102
.L103:
	.loc 1 991 24
	li	a5,41
	j	.L70
.L102:
	.loc 1 996 12
	lhu	a5,72(sp)
	bne	a5,zero,.L104
	.loc 1 996 52 discriminator 1
	lhu	a5,70(sp)
	beq	a5,zero,.L105
.L104:
	.loc 1 999 24
	lui	a5,%hi(bEscIntEnabled)
	li	a4,1
	sb	a4,%lo(bEscIntEnabled)(a5)
.L105:
	.loc 1 1003 12
	lui	a5,%hi(bEscIntEnabled)
	lbu	a5,%lo(bEscIntEnabled)(a5)
	.loc 1 1003 11
	beq	a5,zero,.L106
	.loc 1 1005 30
	lui	a5,%hi(nPdOutputSize)
	lhu	a5,%lo(nPdOutputSize)(a5)
	.loc 1 1005 15
	beq	a5,zero,.L107
	.loc 1 1007 32
	lui	a5,%hi(u16ALEventMask)
	li	a4,1024
	sh	a4,%lo(u16ALEventMask)(a5)
	j	.L106
.L107:
	.loc 1 1009 34
	lui	a5,%hi(nPdInputSize)
	lhu	a5,%lo(nPdInputSize)(a5)
	.loc 1 1009 20
	beq	a5,zero,.L106
	.loc 1 1011 32
	lui	a5,%hi(u16ALEventMask)
	bseti	a4,zero,11
	sh	a4,%lo(u16ALEventMask)(a5)
.L106:
	.loc 1 1016 12
	lhu	a4,72(sp)
	li	a5,2
	beq	a4,a5,.L108
	.loc 1 1016 50 discriminator 1
	lhu	a4,72(sp)
	li	a5,3
	beq	a4,a5,.L108
	.loc 1 1017 13
	lhu	a4,70(sp)
	li	a5,2
	beq	a4,a5,.L108
	.loc 1 1017 53 discriminator 1
	lhu	a4,70(sp)
	li	a5,3
	bne	a4,a5,.L109
.L108:
	.loc 1 1020 27
	lui	a5,%hi(bDcSyncActive)
	li	a4,1
	sb	a4,%lo(bDcSyncActive)(a5)
	.loc 1 1023 31
	lui	a5,%hi(nPdOutputSize)
	lhu	a5,%lo(nPdOutputSize)(a5)
	.loc 1 1023 16
	bne	a5,zero,.L109
	.loc 1 1025 31
	lui	a5,%hi(u16ALEventMask)
	sh	zero,%lo(u16ALEventMask)(a5)
.L109:
	.loc 1 1031 32
	lui	a5,%hi(sSyncManOutPar)
	addi	a5,a5,%lo(sSyncManOutPar)
	lw	a4,72(sp)
	andi	a4,a4,255
	lbu	a3,2(a5)
	andi	a3,a3,0
	or	a4,a3,a4
	sb	a4,2(a5)
	lw	a4,72(sp)
	srli	a4,a4,8
	andi	a4,a4,255
	lbu	a3,3(a5)
	andi	a3,a3,0
	or	a4,a3,a4
	sb	a4,3(a5)
	.loc 1 1032 31
	lui	a5,%hi(sSyncManInPar)
	addi	a5,a5,%lo(sSyncManInPar)
	lhu	a4,70(sp)
	andi	a4,a4,255
	lbu	a3,2(a5)
	andi	a3,a3,0
	or	a4,a3,a4
	sb	a4,2(a5)
	lhu	a4,70(sp)
	srli	a4,a4,8
	zext.h	a4,a4
	lbu	a3,3(a5)
	andi	a3,a3,0
	or	a4,a3,a4
	sb	a4,3(a5)
	.loc 1 1035 26
	lui	a5,%hi(LatchInputSync0Value)
	sh	zero,%lo(LatchInputSync0Value)(a5)
	.loc 1 1036 28
	lui	a5,%hi(LatchInputSync0Counter)
	sh	zero,%lo(LatchInputSync0Counter)(a5)
	.loc 1 1037 21
	lui	a5,%hi(u16SmSync0Value)
	sh	zero,%lo(u16SmSync0Value)(a5)
	.loc 1 1038 23
	lui	a5,%hi(u16SmSync0Counter)
	sh	zero,%lo(u16SmSync0Counter)(a5)
	.loc 1 1041 7
	lbu	a4,79(sp)
	li	a5,1
	bne	a4,a5,.L110
.LBB3:
	.loc 1 1044 16
	lw	a4,56(sp)
	lw	a5,60(sp)
	add	a5,a4,a5
	sw	a5,36(sp)
	.loc 1 1048 11
	lw	a4,56(sp)
	lw	a5,60(sp)
	bltu	a4,a5,.L111
	.loc 1 1051 55
	lw	a4,36(sp)
	lw	a5,60(sp)
	divu	a5,a4,a5
	.loc 1 1051 31
	zext.h	a4,a5
	.loc 1 1051 29
	lui	a5,%hi(u16SmSync0Value)
	sh	a4,%lo(u16SmSync0Value)(a5)
	.loc 1 1053 32
	lw	a4,36(sp)
	lw	a5,60(sp)
	remu	a5,a4,a5
	.loc 1 1053 15
	bne	a5,zero,.L112
	.loc 1 1056 33
	lui	a5,%hi(u16SmSync0Value)
	lhu	a5,%lo(u16SmSync0Value)(a5)
	addi	a5,a5,1
	zext.h	a4,a5
	lui	a5,%hi(u16SmSync0Value)
	sh	a4,%lo(u16SmSync0Value)(a5)
	j	.L112
.L111:
	.loc 1 1061 29
	lui	a5,%hi(u16SmSync0Value)
	li	a4,1
	sh	a4,%lo(u16SmSync0Value)(a5)
.L112:
	.loc 1 1065 57
	lw	a4,36(sp)
	lw	a5,60(sp)
	divu	a5,a4,a5
	.loc 1 1065 32
	zext.h	a4,a5
	.loc 1 1065 30
	lui	a5,%hi(LatchInputSync0Value)
	sh	a4,%lo(LatchInputSync0Value)(a5)
	.loc 1 1067 29
	lw	a4,36(sp)
	lw	a5,60(sp)
	remu	a5,a4,a5
	.loc 1 1067 12
	beq	a5,zero,.L113
	.loc 1 1069 33
	lui	a5,%hi(LatchInputSync0Value)
	lhu	a5,%lo(LatchInputSync0Value)(a5)
	addi	a5,a5,1
	zext.h	a4,a5
	lui	a5,%hi(LatchInputSync0Value)
	sh	a4,%lo(LatchInputSync0Value)(a5)
	j	.L113
.L110:
.LBE3:
	.loc 1 1075 11
	lhu	a4,72(sp)
	li	a5,2
	bne	a4,a5,.L114
	.loc 1 1078 29
	lui	a5,%hi(u16SmSync0Value)
	li	a4,1
	sh	a4,%lo(u16SmSync0Value)(a5)
.L114:
	.loc 1 1081 11
	lhu	a4,70(sp)
	li	a5,3
	beq	a4,a5,.L113
	.loc 1 1083 34
	lui	a5,%hi(LatchInputSync0Value)
	li	a4,1
	sh	a4,%lo(LatchInputSync0Value)(a5)
.L113:
	.loc 1 1090 34
	lui	a5,%hi(sCycleDiag)
	lbu	a4,%lo(sCycleDiag)(a5)
	andi	a4,a4,0
	sb	a4,%lo(sCycleDiag)(a5)
	lbu	a4,%lo(sCycleDiag+1)(a5)
	andi	a4,a4,0
	sb	a4,%lo(sCycleDiag+1)(a5)
.LBB4:
	.loc 1 1099 12
	sw	zero,32(sp)
	.loc 1 1100 5
	lui	a5,%hi(pEsc)
	lw	a5,%lo(pEsc)(a5)
	addi	a5,a5,1056
	lw	a5,0(a5)
	sw	a5,32(sp)
	.loc 1 1102 8
	lw	a5,32(sp)
	sh	a5,66(sp)
.LBE4:
	.loc 1 1105 23
	lui	a5,%hi(nPdOutputSize)
	lhu	a5,%lo(nPdOutputSize)(a5)
	.loc 1 1105 8
	beq	a5,zero,.L115
	.loc 1 1105 27 discriminator 1
	lhu	a5,66(sp)
	beq	a5,zero,.L115
.LBB5:
	.loc 1 1109 12
	sw	zero,28(sp)
	.loc 1 1110 5
	lui	a5,%hi(pEsc)
	lw	a5,%lo(pEsc)(a5)
	addi	a5,a5,1024
	lw	a5,0(a5)
	sw	a5,28(sp)
	.loc 1 1113 10
	lw	a5,28(sp)
	sh	a5,68(sp)
.LBE5:
	.loc 1 1115 12
	lhu	a5,68(sp)
	beq	a5,zero,.L116
.LBB6:
	.loc 1 1118 28
	lhu	a5,68(sp)
	addi	a5,a5,2
	.loc 1 1118 20
	sw	a5,24(sp)
	.loc 1 1121 15
	lhu	a5,66(sp)
	lw	a4,24(sp)
	mul	a5,a4,a5
	sw	a5,24(sp)
	.loc 1 1124 15
	lw	a4,24(sp)
	li	a5,24576
	addi	a5,a5,423
	add	a5,a4,a5
	sw	a5,24(sp)
	.loc 1 1125 15
	lw	a5,24(sp)
	srli	a4,a5,3
	li	a5,351842304
	addi	a5,a5,1417
	mulhu	a5,a4,a5
	srli	a5,a5,8
	sw	a5,24(sp)
	.loc 1 1126 27
	lw	a5,24(sp)
	zext.h	a4,a5
	.loc 1 1126 25
	lui	a5,%hi(EcatWdValue)
	sh	a4,%lo(EcatWdValue)(a5)
.LBE6:
	.loc 1 1115 12
	j	.L118
.L116:
	.loc 1 1130 16
	sh	zero,66(sp)
	.loc 1 1132 25
	lui	a5,%hi(EcatWdValue)
	sh	zero,%lo(EcatWdValue)(a5)
	.loc 1 1115 12
	j	.L118
.L115:
	.loc 1 1138 14
	sh	zero,68(sp)
	.loc 1 1139 21
	lui	a5,%hi(EcatWdValue)
	sh	zero,%lo(EcatWdValue)(a5)
.L118:
	.loc 1 1142 21
	lui	a5,%hi(EcatWdValue)
	lhu	a5,%lo(EcatWdValue)(a5)
	.loc 1 1142 7
	bne	a5,zero,.L119
	.loc 1 1142 26 discriminator 1
	lui	a5,%hi(bWdTrigger)
	lbu	a5,%lo(bWdTrigger)(a5)
	bne	a5,zero,.L120
.L119:
	.loc 1 1142 57 discriminator 3
	lui	a5,%hi(EcatWdValue)
	lhu	a5,%lo(EcatWdValue)(a5)
	.loc 1 1142 41 discriminator 3
	beq	a5,zero,.L121
	.loc 1 1142 65 discriminator 4
	lui	a5,%hi(bWdTrigger)
	lbu	a5,%lo(bWdTrigger)(a5)
	.loc 1 1142 62 discriminator 4
	bne	a5,zero,.L121
.L120:
	.loc 1 1146 16
	li	a5,31
	j	.L70
.L121:
	.loc 1 1149 10
	lui	a5,%hi(bEscIntEnabled)
	lbu	a5,%lo(bEscIntEnabled)(a5)
	.loc 1 1149 8
	beq	a5,zero,.L122
	.loc 1 1149 42 discriminator 1
	lui	a5,%hi(nPdOutputSize)
	lhu	a5,%lo(nPdOutputSize)(a5)
	.loc 1 1149 25 discriminator 1
	beq	a5,zero,.L122
	.loc 1 1153 24
	lui	a5,%hi(u16ALEventMask)
	lhu	a5,%lo(u16ALEventMask)(a5)
	ori	a5,a5,1024
	zext.h	a4,a5
	lui	a5,%hi(u16ALEventMask)
	sh	a4,%lo(u16ALEventMask)(a5)
.L122:
	.loc 1 1157 18
	lui	a5,%hi(Sync0WdValue)
	sh	zero,%lo(Sync0WdValue)(a5)
	.loc 1 1158 20
	lui	a5,%hi(Sync0WdCounter)
	sh	zero,%lo(Sync0WdCounter)(a5)
	.loc 1 1159 20
	lui	a5,%hi(Sync1WdCounter)
	sh	zero,%lo(Sync1WdCounter)(a5)
	.loc 1 1160 18
	lui	a5,%hi(Sync1WdValue)
	sh	zero,%lo(Sync1WdValue)(a5)
	.loc 1 1161 16
	lui	a5,%hi(bDcRunning)
	sb	zero,%lo(bDcRunning)(a5)
	.loc 1 1162 26
	lui	a5,%hi(bSmSyncSequenceValid)
	sb	zero,%lo(bSmSyncSequenceValid)(a5)
	.loc 1 1163 33
	lui	a5,%hi(i16WaitForPllRunningTimeout)
	sh	zero,%lo(i16WaitForPllRunningTimeout)(a5)
.LBB7:
	.loc 1 1168 16
	sw	zero,20(sp)
	.loc 1 1169 9
	lui	a5,%hi(pEsc)
	lw	a5,%lo(pEsc)(a5)
	addi	a5,a5,336
	lw	a5,0(a5)
	sw	a5,20(sp)
	.loc 1 1170 24
	lw	a4,20(sp)
	bseti	a5,zero,11
	and	a5,a4,a5
	.loc 1 1170 12
	beq	a5,zero,.L123
	.loc 1 1172 28
	lui	a5,%hi(u16ALEventMask)
	lhu	a5,%lo(u16ALEventMask)(a5)
	ori	a5,a5,4
	zext.h	a4,a5
	lui	a5,%hi(u16ALEventMask)
	sh	a4,%lo(u16ALEventMask)(a5)
.L123:
	.loc 1 1175 24
	lw	a4,20(sp)
	li	a5,32768
	and	a5,a4,a5
	.loc 1 1175 12
	beq	a5,zero,.L124
	.loc 1 1177 28
	lui	a5,%hi(u16ALEventMask)
	lhu	a5,%lo(u16ALEventMask)(a5)
	ori	a5,a5,8
	zext.h	a4,a5
	lui	a5,%hi(u16ALEventMask)
	sh	a4,%lo(u16ALEventMask)(a5)
.L124:
.LBE7:
	.loc 1 1181 43
	lui	a5,%hi(sSyncManInPar)
	addi	a5,a5,%lo(sSyncManInPar)
	lbu	a4,36(a5)
	andi	a4,a4,0
	sb	a4,36(a5)
	lbu	a4,37(a5)
	andi	a4,a4,0
	sb	a4,37(a5)
	.loc 1 1182 43
	lui	a5,%hi(sSyncManInPar)
	addi	a5,a5,%lo(sSyncManInPar)
	lbu	a4,38(a5)
	andi	a4,a4,0
	sb	a4,38(a5)
	lbu	a4,39(a5)
	andi	a4,a4,0
	sb	a4,39(a5)
	.loc 1 1183 31
	lui	a5,%hi(sSyncManInPar)
	addi	a5,a5,%lo(sSyncManInPar)
	sb	zero,60(a5)
	.loc 1 1186 44
	lui	a5,%hi(sSyncManOutPar)
	addi	a5,a5,%lo(sSyncManOutPar)
	lbu	a4,36(a5)
	andi	a4,a4,0
	sb	a4,36(a5)
	lbu	a4,37(a5)
	andi	a4,a4,0
	sb	a4,37(a5)
	.loc 1 1187 44
	lui	a5,%hi(sSyncManOutPar)
	addi	a5,a5,%lo(sSyncManOutPar)
	lbu	a4,38(a5)
	andi	a4,a4,0
	sb	a4,38(a5)
	lbu	a4,39(a5)
	andi	a4,a4,0
	sb	a4,39(a5)
	.loc 1 1188 32
	lui	a5,%hi(sSyncManOutPar)
	addi	a5,a5,%lo(sSyncManOutPar)
	sb	zero,60(a5)
	.loc 1 1191 21
	lw	a5,44(sp)
	andi	a5,a5,512
	.loc 1 1191 8
	beq	a5,zero,.L125
	.loc 1 1195 11
	lw	a5,60(sp)
	bne	a5,zero,.L126
	.loc 1 1197 26
	lui	a5,%hi(Sync0WdValue)
	sh	zero,%lo(Sync0WdValue)(a5)
	j	.L127
.L126:
.LBB8:
	.loc 1 1201 20
	lw	a5,60(sp)
	srli	a4,a5,5
	li	a5,175923200
	addi	a5,a5,-1339
	mulhu	a5,a4,a5
	srli	a5,a5,7
	sw	a5,16(sp)
	.loc 1 1203 15
	lw	a4,16(sp)
	li	a5,4
	bgtu	a4,a5,.L128
	.loc 1 1206 30
	lui	a5,%hi(Sync0WdValue)
	li	a4,1
	sh	a4,%lo(Sync0WdValue)(a5)
	j	.L127
.L128:
	.loc 1 1210 32
	lw	a5,16(sp)
	zext.h	a5,a5
	slli	a5,a5,1
	zext.h	a4,a5
	.loc 1 1210 30
	li	a5,-858992640
	addi	a5,a5,-819
	mulhu	a5,a4,a5
	srli	a5,a5,3
	zext.h	a4,a5
	lui	a5,%hi(Sync0WdValue)
	sh	a4,%lo(Sync0WdValue)(a5)
.L127:
.LBE8:
	.loc 1 1215 25
	lw	a5,44(sp)
	andi	a5,a5,1024
	.loc 1 1215 12
	beq	a5,zero,.L125
	.loc 1 1217 15
	lw	a4,56(sp)
	lw	a5,60(sp)
	bgeu	a4,a5,.L129
	.loc 1 1220 30
	lui	a5,%hi(Sync0WdValue)
	lhu	a4,%lo(Sync0WdValue)(a5)
	lui	a5,%hi(Sync1WdValue)
	sh	a4,%lo(Sync1WdValue)(a5)
	j	.L125
.L129:
.LBB9:
	.loc 1 1225 54
	lw	a4,56(sp)
	lw	a5,60(sp)
	add	a5,a4,a5
	.loc 1 1225 24
	srli	a4,a5,5
	li	a5,175923200
	addi	a5,a5,-1339
	mulhu	a5,a4,a5
	srli	a5,a5,7
	sw	a5,12(sp)
	.loc 1 1226 19
	lw	a4,12(sp)
	li	a5,4
	bgtu	a4,a5,.L130
	.loc 1 1229 34
	lui	a5,%hi(Sync1WdValue)
	li	a4,1
	sh	a4,%lo(Sync1WdValue)(a5)
	j	.L131
.L130:
	.loc 1 1233 56
	lw	a5,12(sp)
	slli	a4,a5,1
	.loc 1 1233 59
	li	a5,-858992640
	addi	a5,a5,-819
	mulhu	a5,a4,a5
	srli	a5,a5,3
	.loc 1 1233 36
	zext.h	a4,a5
	.loc 1 1233 34
	lui	a5,%hi(Sync1WdValue)
	sh	a4,%lo(Sync1WdValue)(a5)
.L131:
	.loc 1 1237 30
	lui	a5,%hi(Sync0WdValue)
	lhu	a5,%lo(Sync0WdValue)(a5)
	srli	a5,a5,1
	zext.h	a4,a5
	lui	a5,%hi(Sync1WdValue)
	lhu	a5,%lo(Sync1WdValue)(a5)
	add	a5,a4,a5
	zext.h	a4,a5
	lui	a5,%hi(Sync1WdValue)
	sh	a4,%lo(Sync1WdValue)(a5)
.L125:
.LBE9:
	.loc 1 1242 22
	lui	a5,%hi(nPdOutputSize)
	lhu	a5,%lo(nPdOutputSize)(a5)
	.loc 1 1242 7
	beq	a5,zero,.L132
	.loc 1 1244 9
	li	a0,2
	call	EnableSyncManChannel
.L132:
	.loc 1 1247 21
	lui	a5,%hi(nPdInputSize)
	lhu	a5,%lo(nPdInputSize)(a5)
	.loc 1 1247 7
	beq	a5,zero,.L133
	.loc 1 1249 9
	li	a0,3
	call	EnableSyncManChannel
.L133:
	.loc 1 1253 5
	call	PDO_InputMapping
	.loc 1 1255 12
	li	a5,0
.L70:
	.loc 1 1256 1
	mv	a0,a5
	lw	ra,92(sp)
	.cfi_restore 1
	addi	sp,sp,96
	.cfi_def_cfa_offset 0
	jr	ra
	.cfi_endproc
.LFE239:
	.size	StartInputHandler, .-StartInputHandler
	.section	.text.StartOutputHandler,"ax",@progbits
	.align	1
	.globl	StartOutputHandler
	.type	StartOutputHandler, @function
StartOutputHandler:
.LFB240:
	.loc 1 1269 1
	.cfi_startproc
	addi	sp,sp,-16
	.cfi_def_cfa_offset 16
	.loc 1 1273 12
	li	a5,255
	sh	a5,14(sp)
	.loc 1 1275 8
	lui	a5,%hi(u8LocalErrorState)
	lbu	a5,%lo(u8LocalErrorState)(a5)
	andi	a4,a5,15
	.loc 1 1275 7
	li	a5,1
	beq	a4,a5,.L135
	.loc 1 1275 8 discriminator 1
	lui	a5,%hi(u8LocalErrorState)
	lbu	a5,%lo(u8LocalErrorState)(a5)
	andi	a4,a5,15
	li	a5,2
	beq	a4,a5,.L135
	.loc 1 1275 8 is_stmt 0 discriminator 2
	lui	a5,%hi(u8LocalErrorState)
	lbu	a5,%lo(u8LocalErrorState)(a5)
	andi	a4,a5,15
	li	a5,4
	beq	a4,a5,.L135
	.loc 1 1275 8 discriminator 3
	lui	a5,%hi(u8LocalErrorState)
	lbu	a5,%lo(u8LocalErrorState)(a5)
	andi	a4,a5,15
	li	a5,8
	bne	a4,a5,.L136
.L135:
	.loc 1 1279 16 is_stmt 1
	lui	a5,%hi(u16LocalErrorCode)
	lhu	a5,%lo(u16LocalErrorCode)(a5)
	j	.L137
.L136:
	.loc 1 1285 8
	lui	a5,%hi(bDcSyncActive)
	lbu	a5,%lo(bDcSyncActive)(a5)
	.loc 1 1285 7
	beq	a5,zero,.L138
	.loc 1 1287 37
	lui	a5,%hi(i16WaitForPllRunningTimeout)
	li	a4,200
	sh	a4,%lo(i16WaitForPllRunningTimeout)(a5)
	.loc 1 1289 33
	lui	a5,%hi(i16WaitForPllRunningCnt)
	sh	zero,%lo(i16WaitForPllRunningCnt)(a5)
.L138:
	.loc 1 1294 44
	lui	a5,%hi(sSyncManOutPar)
	addi	a5,a5,%lo(sSyncManOutPar)
	lbu	a4,36(a5)
	andi	a4,a4,0
	sb	a4,36(a5)
	lbu	a4,37(a5)
	andi	a4,a4,0
	sb	a4,37(a5)
	.loc 1 1295 32
	lui	a5,%hi(sSyncManOutPar)
	addi	a5,a5,%lo(sSyncManOutPar)
	sb	zero,60(a5)
	.loc 1 1298 43
	lui	a5,%hi(sSyncManInPar)
	addi	a5,a5,%lo(sSyncManInPar)
	lbu	a4,36(a5)
	andi	a4,a4,0
	sb	a4,36(a5)
	lbu	a4,37(a5)
	andi	a4,a4,0
	sb	a4,37(a5)
	.loc 1 1299 31
	lui	a5,%hi(sSyncManInPar)
	addi	a5,a5,%lo(sSyncManInPar)
	sb	zero,60(a5)
	.loc 1 1302 12
	lhu	a5,14(sp)
.L137:
	.loc 1 1303 1
	mv	a0,a5
	addi	sp,sp,16
	.cfi_def_cfa_offset 0
	jr	ra
	.cfi_endproc
.LFE240:
	.size	StartOutputHandler, .-StartOutputHandler
	.section	.text.StopOutputHandler,"ax",@progbits
	.align	1
	.globl	StopOutputHandler
	.type	StopOutputHandler, @function
StopOutputHandler:
.LFB241:
	.loc 1 1314 1
	.cfi_startproc
	.loc 1 1316 31
	lui	a5,%hi(bEcatFirstOutputsReceived)
	sb	zero,%lo(bEcatFirstOutputsReceived)(a5)
	.loc 1 1317 30
	lui	a5,%hi(bEcatOutputUpdateRunning)
	sb	zero,%lo(bEcatOutputUpdateRunning)(a5)
	.loc 1 1318 1
	nop
	ret
	.cfi_endproc
.LFE241:
	.size	StopOutputHandler, .-StopOutputHandler
	.section	.text.StopInputHandler,"ax",@progbits
	.align	1
	.globl	StopInputHandler
	.type	StopInputHandler, @function
StopInputHandler:
.LFB242:
	.loc 1 1327 1
	.cfi_startproc
	addi	sp,sp,-32
	.cfi_def_cfa_offset 32
	sw	ra,28(sp)
	.cfi_offset 1, -4
	.loc 1 1328 22
	lui	a5,%hi(nPdOutputSize)
	lhu	a5,%lo(nPdOutputSize)(a5)
	.loc 1 1328 7
	beq	a5,zero,.L141
	.loc 1 1331 9
	li	a0,2
	call	DisableSyncManChannel
.L141:
	.loc 1 1334 21
	lui	a5,%hi(nPdInputSize)
	lhu	a5,%lo(nPdInputSize)(a5)
	.loc 1 1334 7
	beq	a5,zero,.L142
	.loc 1 1337 9
	li	a0,3
	call	DisableSyncManChannel
.L142:
.LBB10:
	.loc 1 1344 16
	li	a5,12
	sh	a5,14(sp)
	.loc 1 1345 19
	lhu	a5,14(sp)
	ori	a5,a5,1024
	sh	a5,14(sp)
	.loc 1 1346 19
	lhu	a5,14(sp)
	mv	a4,a5
	bseti	a5,zero,11
	or	a5,a4,a5
	sh	a5,14(sp)
	.loc 1 1348 5
	lhu	a5,14(sp)
	not	a5,a5
	zext.h	a5,a5
	mv	a0,a5
	call	ResetALEventMask
.LBE10:
	.loc 1 1351 31
	lui	a5,%hi(bEcatFirstOutputsReceived)
	sb	zero,%lo(bEcatFirstOutputsReceived)(a5)
	.loc 1 1352 20
	lui	a5,%hi(bEscIntEnabled)
	sb	zero,%lo(bEscIntEnabled)(a5)
	.loc 1 1355 19
	lui	a5,%hi(bDcSyncActive)
	sb	zero,%lo(bDcSyncActive)(a5)
	.loc 1 1356 16
	lui	a5,%hi(bDcRunning)
	sb	zero,%lo(bDcRunning)(a5)
	.loc 1 1357 26
	lui	a5,%hi(bSmSyncSequenceValid)
	sb	zero,%lo(bSmSyncSequenceValid)(a5)
	.loc 1 1358 21
	lui	a5,%hi(u16SmSync0Value)
	sh	zero,%lo(u16SmSync0Value)(a5)
	.loc 1 1359 23
	lui	a5,%hi(u16SmSync0Counter)
	sh	zero,%lo(u16SmSync0Counter)(a5)
	.loc 1 1361 18
	lui	a5,%hi(Sync0WdValue)
	sh	zero,%lo(Sync0WdValue)(a5)
	.loc 1 1362 20
	lui	a5,%hi(Sync0WdCounter)
	sh	zero,%lo(Sync0WdCounter)(a5)
	.loc 1 1363 20
	lui	a5,%hi(Sync1WdCounter)
	sh	zero,%lo(Sync1WdCounter)(a5)
	.loc 1 1364 18
	lui	a5,%hi(Sync1WdValue)
	sh	zero,%lo(Sync1WdValue)(a5)
	.loc 1 1365 26
	lui	a5,%hi(LatchInputSync0Value)
	sh	zero,%lo(LatchInputSync0Value)(a5)
	.loc 1 1366 28
	lui	a5,%hi(LatchInputSync0Counter)
	sh	zero,%lo(LatchInputSync0Counter)(a5)
	.loc 1 1369 44
	lui	a5,%hi(sSyncManOutPar)
	addi	a5,a5,%lo(sSyncManOutPar)
	lbu	a4,36(a5)
	andi	a4,a4,0
	sb	a4,36(a5)
	lbu	a4,37(a5)
	andi	a4,a4,0
	sb	a4,37(a5)
	.loc 1 1370 44
	lui	a5,%hi(sSyncManOutPar)
	addi	a5,a5,%lo(sSyncManOutPar)
	lbu	a4,38(a5)
	andi	a4,a4,0
	sb	a4,38(a5)
	lbu	a4,39(a5)
	andi	a4,a4,0
	sb	a4,39(a5)
	.loc 1 1371 32
	lui	a5,%hi(sSyncManOutPar)
	addi	a5,a5,%lo(sSyncManOutPar)
	sb	zero,60(a5)
	.loc 1 1374 43
	lui	a5,%hi(sSyncManInPar)
	addi	a5,a5,%lo(sSyncManInPar)
	lbu	a4,36(a5)
	andi	a4,a4,0
	sb	a4,36(a5)
	lbu	a4,37(a5)
	andi	a4,a4,0
	sb	a4,37(a5)
	.loc 1 1375 43
	lui	a5,%hi(sSyncManInPar)
	addi	a5,a5,%lo(sSyncManInPar)
	lbu	a4,38(a5)
	andi	a4,a4,0
	sb	a4,38(a5)
	lbu	a4,39(a5)
	andi	a4,a4,0
	sb	a4,39(a5)
	.loc 1 1376 31
	lui	a5,%hi(sSyncManInPar)
	addi	a5,a5,%lo(sSyncManInPar)
	sb	zero,60(a5)
	.loc 1 1378 33
	lui	a5,%hi(i16WaitForPllRunningTimeout)
	sh	zero,%lo(i16WaitForPllRunningTimeout)(a5)
	.loc 1 1380 16
	lui	a5,%hi(bWdTrigger)
	sb	zero,%lo(bWdTrigger)(a5)
	.loc 1 1381 29
	lui	a5,%hi(bEcatInputUpdateRunning)
	sb	zero,%lo(bEcatInputUpdateRunning)(a5)
	.loc 1 1384 20
	lui	a5,%hi(bSyncSetByUser)
	sb	zero,%lo(bSyncSetByUser)(a5)
	.loc 1 1385 1
	nop
	lw	ra,28(sp)
	.cfi_restore 1
	addi	sp,sp,32
	.cfi_def_cfa_offset 0
	jr	ra
	.cfi_endproc
.LFE242:
	.size	StopInputHandler, .-StopInputHandler
	.section	.text.BackToInitTransition,"ax",@progbits
	.align	1
	.globl	BackToInitTransition
	.type	BackToInitTransition, @function
BackToInitTransition:
.LFB243:
	.loc 1 1394 1
	.cfi_startproc
	.loc 1 1396 20
	lui	a5,%hi(bSyncSetByUser)
	sb	zero,%lo(bSyncSetByUser)(a5)
	.loc 1 1397 1
	nop
	ret
	.cfi_endproc
.LFE243:
	.size	BackToInitTransition, .-BackToInitTransition
	.section	.text.SetALStatus,"ax",@progbits
	.align	1
	.globl	SetALStatus
	.type	SetALStatus, @function
SetALStatus:
.LFB244:
	.loc 1 1407 1
	.cfi_startproc
	addi	sp,sp,-32
	.cfi_def_cfa_offset 32
	mv	a5,a0
	mv	a4,a1
	sb	a5,15(sp)
	mv	a5,a4
	sh	a5,12(sp)
	.loc 1 1408 12
	lhu	a5,12(sp)
	sh	a5,30(sp)
	.loc 1 1409 12
	sw	zero,24(sp)
	.loc 1 1412 18
	lui	a5,%hi(nAlStatus)
	lbu	a5,%lo(nAlStatus)(a5)
	.loc 1 1412 7
	lbu	a4,15(sp)
	beq	a4,a5,.L145
	.loc 1 1414 19
	lui	a5,%hi(nAlStatus)
	lbu	a4,15(sp)
	sb	a4,%lo(nAlStatus)(a5)
.L145:
	.loc 1 1418 8
	lui	a5,%hi(bExplicitDevIdRequested)
	lbu	a5,%lo(bExplicitDevIdRequested)(a5)
	.loc 1 1418 7
	beq	a5,zero,.L146
	.loc 1 1418 47 discriminator 1
	lui	a5,%hi(nAlStatus)
	lbu	a5,%lo(nAlStatus)(a5)
	andi	a5,a5,16
	.loc 1 1418 32 discriminator 1
	bne	a5,zero,.L146
	.loc 1 1418 63 discriminator 2
	lhu	a5,12(sp)
	bne	a5,zero,.L146
	.loc 1 1418 99 discriminator 3
	lui	a5,%hi(nAlStatus)
	lbu	a5,%lo(nAlStatus)(a5)
	andi	a4,a5,15
	.loc 1 1418 84 discriminator 3
	li	a5,3
	beq	a4,a5,.L146
	.loc 1 1421 15
	lui	a5,%hi(u16IdValue)
	lhu	a5,%lo(u16IdValue)(a5)
	sh	a5,30(sp)
	.loc 1 1423 19
	lui	a5,%hi(nAlStatus)
	lbu	a5,%lo(nAlStatus)(a5)
	ori	a5,a5,32
	andi	a4,a5,0xff
	lui	a5,%hi(nAlStatus)
	sb	a4,%lo(nAlStatus)(a5)
	j	.L147
.L146:
	.loc 1 1427 19
	lui	a5,%hi(nAlStatus)
	lbu	a5,%lo(nAlStatus)(a5)
	andi	a5,a5,-33
	andi	a4,a5,0xff
	lui	a5,%hi(nAlStatus)
	sb	a4,%lo(nAlStatus)(a5)
.L147:
	.loc 1 1430 8
	lhu	a4,12(sp)
	li	a5,65536
	addi	a5,a5,-1
	beq	a4,a5,.L148
	.loc 1 1432 18
	lhu	a5,30(sp)
	sw	a5,24(sp)
	.loc 1 1434 9
	lui	a5,%hi(pEsc)
	lw	a5,%lo(pEsc)(a5)
	addi	a5,a5,308
	lw	a4,24(sp)
	sw	a4,0(a5)
.L148:
	.loc 1 1437 16
	lui	a5,%hi(nAlStatus)
	lbu	a5,%lo(nAlStatus)(a5)
	.loc 1 1437 14
	sw	a5,24(sp)
	.loc 1 1440 5
	lui	a5,%hi(pEsc)
	lw	a5,%lo(pEsc)(a5)
	addi	a5,a5,304
	lw	a4,24(sp)
	sw	a4,0(a5)
	.loc 1 1445 7
	lhu	a5,12(sp)
	beq	a5,zero,.L149
	.loc 1 1445 43 discriminator 1
	lbu	a5,15(sp)
	andi	a5,a5,16
	.loc 1 1445 29 discriminator 1
	bne	a5,zero,.L150
.L149:
	.loc 1 1447 24
	lui	a5,%hi(u8EcatErrorLed)
	sb	zero,%lo(u8EcatErrorLed)(a5)
	j	.L151
.L150:
	.loc 1 1449 12
	lhu	a4,12(sp)
	li	a5,45
	beq	a4,a5,.L152
	.loc 1 1449 56 discriminator 1
	lhu	a4,12(sp)
	li	a5,26
	beq	a4,a5,.L152
	.loc 1 1450 50
	lhu	a4,12(sp)
	li	a5,50
	beq	a4,a5,.L152
	.loc 1 1453 31
	lui	a5,%hi(u8LocalErrorState)
	lbu	a5,%lo(u8LocalErrorState)(a5)
	.loc 1 1453 9
	beq	a5,zero,.L153
.L152:
	.loc 1 1456 24
	lui	a5,%hi(u8EcatErrorLed)
	li	a4,1
	sb	a4,%lo(u8EcatErrorLed)(a5)
	j	.L151
.L153:
	.loc 1 1458 12
	lhu	a4,12(sp)
	li	a5,27
	bne	a4,a5,.L154
	.loc 1 1460 24
	lui	a5,%hi(u8EcatErrorLed)
	li	a4,2
	sb	a4,%lo(u8EcatErrorLed)(a5)
	j	.L151
.L154:
	.loc 1 1464 24
	lui	a5,%hi(u8EcatErrorLed)
	li	a4,13
	sb	a4,%lo(u8EcatErrorLed)(a5)
.L151:
	.loc 1 1466 20
	lui	a5,%hi(u8EcatErrorLed)
	lbu	a5,%lo(u8EcatErrorLed)(a5)
	ori	a5,a5,16
	andi	a4,a5,0xff
	lui	a5,%hi(u8EcatErrorLed)
	sb	a4,%lo(u8EcatErrorLed)(a5)
	.loc 1 1469 22
	lbu	a5,15(sp)
	andi	a5,a5,15
	.loc 1 1469 5
	li	a4,8
	bgtu	a5,a4,.L155
	slli	a4,a5,2
	lui	a5,%hi(.L157)
	addi	a5,a5,%lo(.L157)
	add	a5,a4,a5
	lw	a5,0(a5)
	jr	a5
	.section	.rodata.SetALStatus,"a",@progbits
	.align	2
	.align	2
.L157:
	.word	.L155
	.word	.L161
	.word	.L160
	.word	.L159
	.word	.L158
	.word	.L155
	.word	.L155
	.word	.L155
	.word	.L156
	.section	.text.SetALStatus
.L161:
	.loc 1 1472 22
	lui	a5,%hi(u8EcatRunLed)
	sb	zero,%lo(u8EcatRunLed)(a5)
	.loc 1 1473 9
	j	.L155
.L160:
	.loc 1 1475 22
	lui	a5,%hi(u8EcatRunLed)
	li	a4,13
	sb	a4,%lo(u8EcatRunLed)(a5)
	.loc 1 1476 9
	j	.L155
.L158:
	.loc 1 1478 22
	lui	a5,%hi(u8EcatRunLed)
	li	a4,1
	sb	a4,%lo(u8EcatRunLed)(a5)
	.loc 1 1479 9
	j	.L155
.L156:
	.loc 1 1481 22
	lui	a5,%hi(u8EcatRunLed)
	li	a4,15
	sb	a4,%lo(u8EcatRunLed)(a5)
	.loc 1 1482 9
	j	.L155
.L159:
	.loc 1 1484 22
	lui	a5,%hi(u8EcatRunLed)
	li	a4,14
	sb	a4,%lo(u8EcatRunLed)(a5)
	.loc 1 1485 9
	nop
.L155:
	.loc 1 1488 18
	lui	a5,%hi(u8EcatRunLed)
	lbu	a5,%lo(u8EcatRunLed)(a5)
	ori	a5,a5,16
	andi	a4,a5,0xff
	lui	a5,%hi(u8EcatRunLed)
	sb	a4,%lo(u8EcatRunLed)(a5)
.LBB11:
	.loc 1 1491 12
	sw	zero,20(sp)
	.loc 1 1492 14
	lui	a5,%hi(u8EcatRunLed)
	lbu	a5,%lo(u8EcatRunLed)(a5)
	mv	a4,a5
	lui	a5,%hi(u8EcatErrorLed)
	lbu	a5,%lo(u8EcatErrorLed)(a5)
	slli	a5,a5,8
	.loc 1 1492 12
	or	a5,a4,a5
	sw	a5,20(sp)
	.loc 1 1494 5
	lui	a5,%hi(pEsc)
	lw	a5,%lo(pEsc)(a5)
	addi	a5,a5,312
	lw	a4,20(sp)
	sw	a4,0(a5)
.LBE11:
	.loc 1 1496 1
	nop
	addi	sp,sp,32
	.cfi_def_cfa_offset 0
	jr	ra
	.cfi_endproc
.LFE244:
	.size	SetALStatus, .-SetALStatus
	.section	.text.AL_ControlInd,"ax",@progbits
	.align	1
	.globl	AL_ControlInd
	.type	AL_ControlInd, @function
AL_ControlInd:
.LFB245:
	.loc 1 1518 1
	.cfi_startproc
	addi	sp,sp,-48
	.cfi_def_cfa_offset 48
	sw	ra,44(sp)
	.cfi_offset 1, -4
	mv	a5,a0
	mv	a4,a1
	sb	a5,15(sp)
	mv	a5,a4
	sh	a5,12(sp)
	.loc 1 1519 19
	sh	zero,30(sp)
	.loc 1 1520 22
	sb	zero,29(sp)
	.loc 1 1523 23
	lui	a5,%hi(EsmTimeoutCounter)
	li	a4,-1
	sh	a4,%lo(EsmTimeoutCounter)(a5)
	.loc 1 1524 21
	lui	a5,%hi(bApplEsmPending)
	li	a4,1
	sb	a4,%lo(bApplEsmPending)(a5)
	.loc 1 1527 20
	lbu	a5,15(sp)
	andi	a5,a5,16
	.loc 1 1527 8
	beq	a5,zero,.L163
	.loc 1 1529 17
	li	a5,1
	sb	a5,29(sp)
	.loc 1 1530 19
	lui	a5,%hi(nAlStatus)
	lbu	a5,%lo(nAlStatus)(a5)
	andi	a5,a5,-17
	andi	a4,a5,0xff
	lui	a5,%hi(nAlStatus)
	sb	a4,%lo(nAlStatus)(a5)
	j	.L164
.L163:
	.loc 1 1533 25
	lui	a5,%hi(nAlStatus)
	lbu	a5,%lo(nAlStatus)(a5)
	andi	a5,a5,16
	.loc 1 1533 13
	beq	a5,zero,.L165
	.loc 1 1537 23
	lbu	a5,15(sp)
	andi	a4,a5,15
	.loc 1 1537 9
	li	a5,1
	bne	a4,a5,.L228
.L165:
	.loc 1 1546 19
	lui	a5,%hi(nAlStatus)
	lbu	a5,%lo(nAlStatus)(a5)
	andi	a5,a5,15
	andi	a4,a5,0xff
	lui	a5,%hi(nAlStatus)
	sb	a4,%lo(nAlStatus)(a5)
.L164:
	.loc 1 1553 15
	lbu	a5,15(sp)
	andi	a5,a5,15
	sb	a5,15(sp)
	.loc 1 1554 16
	lui	a5,%hi(nAlStatus)
	lbu	a5,%lo(nAlStatus)(a5)
	sb	a5,28(sp)
	.loc 1 1555 16
	lbu	a5,28(sp)
	slli	a5,a5,4
	sb	a5,28(sp)
	.loc 1 1556 16
	lbu	a5,28(sp)
	mv	a4,a5
	lbu	a5,15(sp)
	add	a5,a4,a5
	sb	a5,28(sp)
	.loc 1 1559 5
	lbu	a5,28(sp)
	li	a4,136
	beq	a5,a4,.L167
	li	a4,136
	bgt	a5,a4,.L168
	li	a4,132
	beq	a5,a4,.L167
	li	a4,132
	bgt	a5,a4,.L168
	li	a4,130
	beq	a5,a4,.L169
	li	a4,130
	bgt	a5,a4,.L168
	li	a4,18
	beq	a5,a4,.L169
	li	a4,18
	blt	a5,a4,.L168
	li	a4,72
	bgt	a5,a4,.L168
	li	a4,34
	blt	a5,a4,.L168
	addi	a5,a5,-34
	li	a4,38
	bgtu	a5,a4,.L168
	slli	a4,a5,2
	lui	a5,%hi(.L170)
	addi	a5,a5,%lo(.L170)
	add	a5,a4,a5
	lw	a5,0(a5)
	jr	a5
	.section	.rodata.AL_ControlInd,"a",@progbits
	.align	2
	.align	2
.L170:
	.word	.L169
	.word	.L168
	.word	.L171
	.word	.L168
	.word	.L168
	.word	.L168
	.word	.L168
	.word	.L168
	.word	.L168
	.word	.L168
	.word	.L168
	.word	.L168
	.word	.L168
	.word	.L168
	.word	.L168
	.word	.L168
	.word	.L168
	.word	.L168
	.word	.L168
	.word	.L168
	.word	.L168
	.word	.L168
	.word	.L168
	.word	.L168
	.word	.L168
	.word	.L168
	.word	.L168
	.word	.L168
	.word	.L168
	.word	.L168
	.word	.L168
	.word	.L168
	.word	.L169
	.word	.L168
	.word	.L167
	.word	.L168
	.word	.L168
	.word	.L168
	.word	.L167
	.section	.text.AL_ControlInd
.L169:
	.loc 1 1568 18
	li	a0,2
	call	CheckSmSettings
	mv	a5,a0
	.loc 1 1568 16 discriminator 1
	sh	a5,30(sp)
	.loc 1 1569 9
	j	.L168
.L171:
	.loc 1 1577 18
	lui	a5,%hi(nPdOutputSize)
	addi	a1,a5,%lo(nPdOutputSize)
	lui	a5,%hi(nPdInputSize)
	addi	a0,a5,%lo(nPdInputSize)
	call	APPL_GenerateMapping
	mv	a5,a0
	sh	a5,30(sp)
	.loc 1 1579 16
	lhu	a5,30(sp)
	bne	a5,zero,.L229
.L167:
	.loc 1 1591 18
	lui	a5,%hi(nMaxSyncMan)
	lbu	a5,%lo(nMaxSyncMan)(a5)
	mv	a0,a5
	call	CheckSmSettings
	mv	a5,a0
	.loc 1 1591 16 discriminator 1
	sh	a5,30(sp)
	.loc 1 1592 9
	j	.L168
.L229:
	.loc 1 1581 17
	nop
.L168:
	.loc 1 1596 8
	lhu	a5,30(sp)
	bne	a5,zero,.L172
	.loc 1 1599 25
	lui	a5,%hi(nEcatStateTrans)
	sh	zero,%lo(nEcatStateTrans)(a5)
	.loc 1 1600 9
	lbu	a5,28(sp)
	addi	a5,a5,-17
	li	a4,119
	bgtu	a5,a4,.L173
	slli	a4,a5,2
	lui	a5,%hi(.L175)
	addi	a5,a5,%lo(.L175)
	add	a5,a4,a5
	lw	a5,0(a5)
	jr	a5
	.section	.rodata.AL_ControlInd
	.align	2
	.align	2
.L175:
	.word	.L188
	.word	.L187
	.word	.L186
	.word	.L177
	.word	.L173
	.word	.L173
	.word	.L173
	.word	.L177
	.word	.L173
	.word	.L173
	.word	.L173
	.word	.L173
	.word	.L173
	.word	.L173
	.word	.L173
	.word	.L173
	.word	.L185
	.word	.L174
	.word	.L177
	.word	.L184
	.word	.L173
	.word	.L173
	.word	.L173
	.word	.L177
	.word	.L173
	.word	.L173
	.word	.L173
	.word	.L173
	.word	.L173
	.word	.L173
	.word	.L173
	.word	.L173
	.word	.L183
	.word	.L177
	.word	.L173
	.word	.L177
	.word	.L173
	.word	.L173
	.word	.L173
	.word	.L177
	.word	.L173
	.word	.L173
	.word	.L173
	.word	.L173
	.word	.L173
	.word	.L173
	.word	.L173
	.word	.L173
	.word	.L182
	.word	.L181
	.word	.L177
	.word	.L174
	.word	.L173
	.word	.L173
	.word	.L173
	.word	.L180
	.word	.L173
	.word	.L173
	.word	.L173
	.word	.L173
	.word	.L173
	.word	.L173
	.word	.L173
	.word	.L173
	.word	.L173
	.word	.L173
	.word	.L173
	.word	.L173
	.word	.L173
	.word	.L173
	.word	.L173
	.word	.L173
	.word	.L173
	.word	.L173
	.word	.L173
	.word	.L173
	.word	.L173
	.word	.L173
	.word	.L173
	.word	.L173
	.word	.L173
	.word	.L173
	.word	.L173
	.word	.L173
	.word	.L173
	.word	.L173
	.word	.L173
	.word	.L173
	.word	.L173
	.word	.L173
	.word	.L173
	.word	.L173
	.word	.L173
	.word	.L173
	.word	.L173
	.word	.L173
	.word	.L173
	.word	.L173
	.word	.L173
	.word	.L173
	.word	.L173
	.word	.L173
	.word	.L173
	.word	.L173
	.word	.L173
	.word	.L173
	.word	.L173
	.word	.L173
	.word	.L173
	.word	.L173
	.word	.L173
	.word	.L173
	.word	.L179
	.word	.L178
	.word	.L177
	.word	.L176
	.word	.L173
	.word	.L173
	.word	.L173
	.word	.L174
	.section	.text.AL_ControlInd
.L186:
	.loc 1 1603 20
	li	a5,19
	sh	a5,30(sp)
	.loc 1 1607 13
	j	.L208
.L183:
	.loc 1 1610 20
	li	a5,19
	sh	a5,30(sp)
	.loc 1 1612 13
	call	BackToInitTransition
	.loc 1 1616 13
	j	.L208
.L187:
	.loc 1 1619 12
	call	UpdateEEPROMLoadedState
	.loc 1 1621 30
	lui	a5,%hi(EepromLoaded)
	lbu	a5,%lo(EepromLoaded)(a5)
	.loc 1 1621 16
	bne	a5,zero,.L190
	.loc 1 1624 24
	li	a5,81
	sh	a5,30(sp)
.L190:
	.loc 1 1626 16
	lhu	a5,30(sp)
	bne	a5,zero,.L230
	.loc 1 1632 22
	call	MBX_StartMailboxHandler
	mv	a5,a0
	sh	a5,30(sp)
	.loc 1 1633 16
	lhu	a5,30(sp)
	bne	a5,zero,.L192
	.loc 1 1635 33
	lui	a5,%hi(bApplEsmPending)
	sb	zero,%lo(bApplEsmPending)(a5)
	.loc 1 1640 26
	call	APPL_StartMailboxHandler
	mv	a5,a0
	sh	a5,30(sp)
	.loc 1 1641 20
	lhu	a5,30(sp)
	bne	a5,zero,.L192
	.loc 1 1643 33
	lui	a5,%hi(bMbxRunning)
	li	a4,1
	sb	a4,%lo(bMbxRunning)(a5)
.L192:
	.loc 1 1647 15
	lhu	a5,30(sp)
	beq	a5,zero,.L230
	.loc 1 1647 28 discriminator 1
	lhu	a4,30(sp)
	li	a5,255
	beq	a4,a5,.L230
	.loc 1 1650 25
	lui	a5,%hi(bApplEsmPending)
	lbu	a5,%lo(bApplEsmPending)(a5)
	.loc 1 1650 24
	bne	a5,zero,.L193
	.loc 1 1652 25
	call	APPL_StopMailboxHandler
.L193:
	.loc 1 1655 18
	call	MBX_StopMailboxHandler
	.loc 1 1659 13
	j	.L230
.L184:
	.loc 1 1663 22
	call	StartInputHandler
	mv	a5,a0
	sh	a5,30(sp)
	.loc 1 1664 16
	lhu	a5,30(sp)
	bne	a5,zero,.L194
	.loc 1 1666 33
	lui	a5,%hi(bApplEsmPending)
	sb	zero,%lo(bApplEsmPending)(a5)
	.loc 1 1667 26
	lui	a5,%hi(u16ALEventMask)
	addi	a0,a5,%lo(u16ALEventMask)
	call	APPL_StartInputHandler
	mv	a5,a0
	sh	a5,30(sp)
	.loc 1 1669 19
	lhu	a5,30(sp)
	bne	a5,zero,.L194
	.loc 1 1674 21
	lui	a5,%hi(u16ALEventMask)
	lhu	a5,%lo(u16ALEventMask)(a5)
	mv	a0,a5
	call	SetALEventMask
	.loc 1 1676 45
	lui	a5,%hi(bEcatInputUpdateRunning)
	li	a4,1
	sb	a4,%lo(bEcatInputUpdateRunning)(a5)
.L194:
	.loc 1 1681 15
	lhu	a5,30(sp)
	beq	a5,zero,.L231
	.loc 1 1681 28 discriminator 1
	lhu	a4,30(sp)
	li	a5,255
	beq	a4,a5,.L231
	.loc 1 1683 20
	lui	a5,%hi(bApplEsmPending)
	lbu	a5,%lo(bApplEsmPending)(a5)
	.loc 1 1683 19
	bne	a5,zero,.L196
	.loc 1 1687 21
	call	APPL_StopInputHandler
.L196:
	.loc 1 1690 17
	call	StopInputHandler
	.loc 1 1692 13
	j	.L231
.L180:
	.loc 1 1697 16
	lbu	a5,29(sp)
	beq	a5,zero,.L197
	.loc 1 1699 35
	lui	a5,%hi(nPdOutputSize)
	lhu	a5,%lo(nPdOutputSize)(a5)
	.loc 1 1699 20
	beq	a5,zero,.L198
	.loc 1 1701 21
	li	a0,2
	call	EnableSyncManChannel
	j	.L197
.L198:
	.loc 1 1704 38
	lui	a5,%hi(nPdInputSize)
	lhu	a5,%lo(nPdInputSize)(a5)
	.loc 1 1704 24
	beq	a5,zero,.L197
	.loc 1 1706 25
	li	a0,3
	call	EnableSyncManChannel
.L197:
	.loc 1 1712 22
	call	StartOutputHandler
	mv	a5,a0
	sh	a5,30(sp)
	.loc 1 1713 15
	lhu	a5,30(sp)
	bne	a5,zero,.L199
	.loc 1 1715 33
	lui	a5,%hi(bApplEsmPending)
	sb	zero,%lo(bApplEsmPending)(a5)
	.loc 1 1716 26
	call	APPL_StartOutputHandler
	mv	a5,a0
	sh	a5,30(sp)
	.loc 1 1718 19
	lhu	a5,30(sp)
	bne	a5,zero,.L199
	.loc 1 1721 46
	lui	a5,%hi(bEcatOutputUpdateRunning)
	li	a4,1
	sb	a4,%lo(bEcatOutputUpdateRunning)(a5)
.L199:
	.loc 1 1726 16
	lhu	a5,30(sp)
	beq	a5,zero,.L232
	.loc 1 1726 30 discriminator 1
	lhu	a4,30(sp)
	li	a5,255
	beq	a4,a5,.L232
	.loc 1 1728 25
	lui	a5,%hi(bApplEsmPending)
	lbu	a5,%lo(bApplEsmPending)(a5)
	.loc 1 1728 24
	bne	a5,zero,.L201
	.loc 1 1730 25
	call	APPL_StopOutputHandler
.L201:
	.loc 1 1733 17
	call	StopOutputHandler
	.loc 1 1736 13
	j	.L232
.L176:
	.loc 1 1740 13
	call	APPL_StopOutputHandler
	.loc 1 1742 13
	call	StopOutputHandler
	.loc 1 1744 29
	lui	a5,%hi(bApplEsmPending)
	sb	zero,%lo(bApplEsmPending)(a5)
	.loc 1 1746 13
	j	.L208
.L178:
	.loc 1 1750 22
	call	APPL_StopOutputHandler
	mv	a5,a0
	sh	a5,30(sp)
	.loc 1 1752 13
	call	StopOutputHandler
	.loc 1 1754 29
	lui	a5,%hi(bApplEsmPending)
	sb	zero,%lo(bApplEsmPending)(a5)
	.loc 1 1756 16
	lhu	a5,30(sp)
	bne	a5,zero,.L233
	.loc 1 1761 24
	li	a5,66
	sb	a5,28(sp)
.L181:
	.loc 1 1765 13
	call	APPL_StopInputHandler
	.loc 1 1767 13
	call	StopInputHandler
	.loc 1 1769 29
	lui	a5,%hi(bApplEsmPending)
	sb	zero,%lo(bApplEsmPending)(a5)
	.loc 1 1771 13
	j	.L208
.L179:
	.loc 1 1775 22
	call	APPL_StopOutputHandler
	mv	a5,a0
	sh	a5,30(sp)
	.loc 1 1777 13
	call	StopOutputHandler
	.loc 1 1779 29
	lui	a5,%hi(bApplEsmPending)
	sb	zero,%lo(bApplEsmPending)(a5)
	.loc 1 1781 16
	lhu	a5,30(sp)
	bne	a5,zero,.L234
	.loc 1 1786 24
	li	a5,65
	sb	a5,28(sp)
.L182:
	.loc 1 1790 22
	call	APPL_StopInputHandler
	mv	a5,a0
	sh	a5,30(sp)
	.loc 1 1792 13
	call	StopInputHandler
	.loc 1 1794 29
	lui	a5,%hi(bApplEsmPending)
	sb	zero,%lo(bApplEsmPending)(a5)
	.loc 1 1796 16
	lhu	a5,30(sp)
	bne	a5,zero,.L235
	.loc 1 1800 24
	li	a5,33
	sb	a5,28(sp)
.L185:
	.loc 1 1803 13
	call	MBX_StopMailboxHandler
	.loc 1 1804 22
	call	APPL_StopMailboxHandler
	mv	a5,a0
	sh	a5,30(sp)
	.loc 1 1806 13
	call	BackToInitTransition
	.loc 1 1807 13
	j	.L208
.L188:
	.loc 1 1809 13
	call	BackToInitTransition
.L174:
	.loc 1 1813 15
	lbu	a5,29(sp)
	beq	a5,zero,.L205
	.loc 1 1815 17
	lbu	a5,28(sp)
	zext.h	a5,a5
	mv	a0,a5
	call	APPL_AckErrorInd
.L205:
	.loc 1 1820 32
	lui	a5,%hi(nAlStatus)
	lbu	a5,%lo(nAlStatus)(a5)
	andi	a5,a5,12
	.loc 1 1820 20
	beq	a5,zero,.L206
	.loc 1 1822 38
	lui	a5,%hi(nPdOutputSize)
	lhu	a5,%lo(nPdOutputSize)(a5)
	.loc 1 1822 23
	beq	a5,zero,.L207
	.loc 1 1824 25
	li	a0,2
	call	EnableSyncManChannel
	j	.L206
.L207:
	.loc 1 1827 37
	lui	a5,%hi(nPdInputSize)
	lhu	a5,%lo(nPdInputSize)(a5)
	.loc 1 1827 23
	beq	a5,zero,.L206
	.loc 1 1829 25
	li	a0,3
	call	EnableSyncManChannel
.L206:
	.loc 1 1833 20
	li	a5,254
	sh	a5,30(sp)
	.loc 1 1834 13
	j	.L208
.L177:
	.loc 1 1845 20
	li	a5,17
	sh	a5,30(sp)
	.loc 1 1846 13
	j	.L208
.L173:
	.loc 1 1849 20
	li	a5,18
	sh	a5,30(sp)
	.loc 1 1850 13
	j	.L208
.L172:
	.loc 1 1857 9
	lui	a5,%hi(nAlStatus)
	lbu	a5,%lo(nAlStatus)(a5)
	li	a4,8
	beq	a5,a4,.L209
	li	a4,8
	bgt	a5,a4,.L208
	li	a4,2
	beq	a5,a4,.L210
	li	a4,4
	beq	a5,a4,.L211
	j	.L208
.L209:
	.loc 1 1861 13
	call	APPL_StopOutputHandler
	.loc 1 1862 13
	call	StopOutputHandler
.L211:
	.loc 1 1865 13
	call	APPL_StopInputHandler
	.loc 1 1867 13
	call	StopInputHandler
.L210:
	.loc 1 1869 16
	lhu	a4,30(sp)
	li	a5,22
	bne	a4,a5,.L212
	.loc 1 1872 17
	call	MBX_StopMailboxHandler
	.loc 1 1873 17
	call	APPL_StopMailboxHandler
	.loc 1 1876 17
	li	a0,0
	call	DisableSyncManChannel
	.loc 1 1879 17
	li	a0,1
	call	DisableSyncManChannel
	.loc 1 1881 27
	lui	a5,%hi(nAlStatus)
	li	a4,1
	sb	a4,%lo(nAlStatus)(a5)
	j	.L208
.L212:
	.loc 1 1885 27
	lui	a5,%hi(nAlStatus)
	li	a4,2
	sb	a4,%lo(nAlStatus)(a5)
	j	.L208
.L230:
	.loc 1 1659 13
	nop
	j	.L208
.L231:
	.loc 1 1692 13
	nop
	j	.L208
.L232:
	.loc 1 1736 13
	nop
	j	.L208
.L233:
	.loc 1 1758 17
	nop
	j	.L208
.L234:
	.loc 1 1783 17
	nop
	j	.L208
.L235:
	.loc 1 1798 17
	nop
.L208:
	.loc 1 1890 8
	lhu	a4,30(sp)
	li	a5,255
	bne	a4,a5,.L213
	.loc 1 1894 34
	lui	a5,%hi(bEcatWaitForAlControlRes)
	li	a4,1
	sb	a4,%lo(bEcatWaitForAlControlRes)(a5)
	.loc 1 1896 25
	lbu	a5,28(sp)
	zext.h	a4,a5
	lui	a5,%hi(nEcatStateTrans)
	sh	a4,%lo(nEcatStateTrans)(a5)
	.loc 1 1899 9
	lui	a5,%hi(nEcatStateTrans)
	lhu	a5,%lo(nEcatStateTrans)(a5)
	li	a4,72
	beq	a5,a4,.L214
	li	a4,72
	bgt	a5,a4,.L215
	li	a4,19
	bgt	a5,a4,.L216
	li	a4,18
	bge	a5,a4,.L217
	j	.L215
.L216:
	li	a4,36
	beq	a5,a4,.L214
	j	.L215
.L217:
	.loc 1 1903 35
	lui	a5,%hi(EsmTimeoutCounter)
	li	a4,2000
	sh	a4,%lo(EsmTimeoutCounter)(a5)
	.loc 1 1904 13
	j	.L218
.L214:
	.loc 1 1907 35
	lui	a5,%hi(EsmTimeoutCounter)
	li	a4,8192
	addi	a4,a4,808
	sh	a4,%lo(EsmTimeoutCounter)(a5)
	.loc 1 1908 17
	j	.L218
.L215:
	.loc 1 1910 35
	lui	a5,%hi(EsmTimeoutCounter)
	li	a4,200
	sh	a4,%lo(EsmTimeoutCounter)(a5)
	.loc 1 1911 17
	nop
.L218:
	.loc 1 1913 27
	lui	a5,%hi(EsmTimeoutCounter)
	lh	a5,%lo(EsmTimeoutCounter)(a5)
	zext.h	a4,a5
	.loc 1 1913 30
	lui	a5,%hi(EsmTimeoutCounter)
	lh	a5,%lo(EsmTimeoutCounter)(a5)
	li	a3,1717985280
	addi	a3,a3,1639
	mulh	a3,a5,a3
	srai	a3,a3,2
	srai	a5,a5,31
	sub	a5,a3,a5
	sext.h	a5,a5
	zext.h	a5,a5
	.loc 1 1913 27
	sub	a5,a4,a5
	zext.h	a5,a5
	sext.h	a4,a5
	lui	a5,%hi(EsmTimeoutCounter)
	sh	a4,%lo(EsmTimeoutCounter)(a5)
	j	.L162
.L213:
	.loc 1 1916 25
	lbu	a4,15(sp)
	.loc 1 1916 39
	lui	a5,%hi(nAlStatus)
	lbu	a5,%lo(nAlStatus)(a5)
	andi	a5,a5,15
	.loc 1 1916 13
	beq	a4,a5,.L219
	.loc 1 1920 12
	lhu	a5,30(sp)
	bne	a5,zero,.L220
	.loc 1 1920 27 discriminator 2
	lhu	a5,12(sp)
	beq	a5,zero,.L221
.L220:
	.loc 1 1920 77 discriminator 3
	lui	a5,%hi(nAlStatus)
	lbu	a5,%lo(nAlStatus)(a5)
	lbu	a4,15(sp)
	or	a5,a5,a4
	andi	a5,a5,0xff
	andi	a5,a5,8
	.loc 1 1920 49 discriminator 3
	beq	a5,zero,.L221
	.loc 1 1926 16
	lui	a5,%hi(bEcatOutputUpdateRunning)
	lbu	a5,%lo(bEcatOutputUpdateRunning)(a5)
	.loc 1 1926 15
	beq	a5,zero,.L222
	.loc 1 1928 17
	call	APPL_StopOutputHandler
	.loc 1 1930 17
	call	StopOutputHandler
.L222:
	.loc 1 1933 30
	lui	a5,%hi(nPdOutputSize)
	lhu	a5,%lo(nPdOutputSize)(a5)
	.loc 1 1933 15
	beq	a5,zero,.L223
	.loc 1 1936 17
	li	a0,2
	call	DisableSyncManChannel
	j	.L221
.L223:
	.loc 1 1939 33
	lui	a5,%hi(nPdInputSize)
	lhu	a5,%lo(nPdInputSize)(a5)
	.loc 1 1939 19
	beq	a5,zero,.L221
	.loc 1 1942 17
	li	a0,3
	call	DisableSyncManChannel
.L221:
	.loc 1 1946 12
	lhu	a5,30(sp)
	beq	a5,zero,.L224
	.loc 1 1948 31
	lui	a5,%hi(nAlStatus)
	lbu	a4,%lo(nAlStatus)(a5)
	.loc 1 1948 20
	li	a5,8
	bne	a4,a5,.L225
	.loc 1 1950 31
	lui	a5,%hi(nAlStatus)
	li	a4,4
	sb	a4,%lo(nAlStatus)(a5)
.L225:
	.loc 1 1954 23
	lui	a5,%hi(nAlStatus)
	lbu	a5,%lo(nAlStatus)(a5)
	ori	a5,a5,16
	andi	a4,a5,0xff
	lui	a5,%hi(nAlStatus)
	sb	a4,%lo(nAlStatus)(a5)
	j	.L226
.L224:
	.loc 1 1959 16
	lhu	a5,12(sp)
	beq	a5,zero,.L227
	.loc 1 1962 24
	lhu	a5,12(sp)
	sh	a5,30(sp)
	.loc 1 1963 27
	lbu	a5,15(sp)
	ori	a5,a5,16
	sb	a5,15(sp)
.L227:
	.loc 1 1966 23
	lui	a5,%hi(nAlStatus)
	lbu	a4,15(sp)
	sb	a4,%lo(nAlStatus)(a5)
.L226:
	.loc 1 1969 34
	lui	a5,%hi(bEcatWaitForAlControlRes)
	sb	zero,%lo(bEcatWaitForAlControlRes)(a5)
	.loc 1 1972 9
	lui	a5,%hi(nAlStatus)
	lbu	a5,%lo(nAlStatus)(a5)
	lhu	a4,30(sp)
	mv	a1,a4
	mv	a0,a5
	call	SetALStatus
	j	.L162
.L219:
	.loc 1 1978 35
	lui	a5,%hi(bEcatWaitForAlControlRes)
	sb	zero,%lo(bEcatWaitForAlControlRes)(a5)
	.loc 1 1982 9
	lui	a5,%hi(nAlStatus)
	lbu	a5,%lo(nAlStatus)(a5)
	li	a1,0
	mv	a0,a5
	call	SetALStatus
	j	.L162
.L228:
	.loc 1 1542 9
	nop
.L162:
	.loc 1 1988 1
	lw	ra,44(sp)
	.cfi_restore 1
	addi	sp,sp,48
	.cfi_def_cfa_offset 0
	jr	ra
	.cfi_endproc
.LFE245:
	.size	AL_ControlInd, .-AL_ControlInd
	.section	.text.AL_ControlRes,"ax",@progbits
	.align	1
	.globl	AL_ControlRes
	.type	AL_ControlRes, @function
AL_ControlRes:
.LFB246:
	.loc 1 1998 1
	.cfi_startproc
	addi	sp,sp,-32
	.cfi_def_cfa_offset 32
	sw	ra,28(sp)
	.cfi_offset 1, -4
	.loc 1 1999 8
	lui	a5,%hi(bEcatWaitForAlControlRes)
	lbu	a5,%lo(bEcatWaitForAlControlRes)(a5)
	.loc 1 1999 7
	beq	a5,zero,.L275
.LBB12:
	.loc 1 2001 16
	sh	zero,10(sp)
	.loc 1 2002 15
	sb	zero,15(sp)
	.loc 1 2003 16
	sh	zero,12(sp)
	.loc 1 2005 30
	lui	a5,%hi(EsmTimeoutCounter)
	lh	a5,%lo(EsmTimeoutCounter)(a5)
	.loc 1 2005 11
	bne	a5,zero,.L238
	.loc 1 2007 23
	lui	a5,%hi(nEcatStateTrans)
	lhu	a5,%lo(nEcatStateTrans)(a5)
	srli	a5,a5,4
	zext.h	a5,a5
	.loc 1 2007 20
	sb	a5,15(sp)
	.loc 1 2010 13
	lui	a5,%hi(nEcatStateTrans)
	lhu	a5,%lo(nEcatStateTrans)(a5)
	li	a4,72
	beq	a5,a4,.L239
	li	a4,72
	bgt	a5,a4,.L260
	li	a4,19
	bgt	a5,a4,.L241
	li	a4,18
	bge	a5,a4,.L242
	j	.L260
.L241:
	li	a4,36
	beq	a5,a4,.L243
	j	.L260
.L242:
	.loc 1 2015 29
	lui	a5,%hi(bApplEsmPending)
	lbu	a5,%lo(bApplEsmPending)(a5)
	.loc 1 2015 28
	bne	a5,zero,.L244
	.loc 1 2017 29
	call	APPL_StopMailboxHandler
.L244:
	.loc 1 2020 21
	call	MBX_StopMailboxHandler
	.loc 1 2022 43
	lui	a5,%hi(u8LocalErrorState)
	lbu	a5,%lo(u8LocalErrorState)(a5)
	andi	a4,a5,15
	.loc 1 2022 23
	li	a5,1
	bne	a4,a5,.L245
	.loc 1 2026 36
	lui	a5,%hi(u16LocalErrorCode)
	lhu	a5,%lo(u16LocalErrorCode)(a5)
	sh	a5,12(sp)
	.loc 1 2033 17
	j	.L260
.L245:
	.loc 1 2031 36
	li	a5,1
	sh	a5,12(sp)
	.loc 1 2033 17
	j	.L260
.L243:
	.loc 1 2036 29
	lui	a5,%hi(bApplEsmPending)
	lbu	a5,%lo(bApplEsmPending)(a5)
	.loc 1 2036 28
	bne	a5,zero,.L247
	.loc 1 2038 29
	call	APPL_StopInputHandler
.L247:
	.loc 1 2041 21
	call	StopInputHandler
	.loc 1 2044 44
	lui	a5,%hi(u8LocalErrorState)
	lbu	a5,%lo(u8LocalErrorState)(a5)
	andi	a4,a5,15
	.loc 1 2044 24
	li	a5,2
	bne	a4,a5,.L248
	.loc 1 2048 36
	lui	a5,%hi(u16LocalErrorCode)
	lhu	a5,%lo(u16LocalErrorCode)(a5)
	sh	a5,12(sp)
	.loc 1 2055 17
	j	.L260
.L248:
	.loc 1 2053 36
	li	a5,1
	sh	a5,12(sp)
	.loc 1 2055 17
	j	.L260
.L239:
	.loc 1 2057 24
	lui	a5,%hi(bDcSyncActive)
	lbu	a5,%lo(bDcSyncActive)(a5)
	.loc 1 2057 23
	beq	a5,zero,.L250
	.loc 1 2060 28
	lui	a5,%hi(bDcRunning)
	lbu	a5,%lo(bDcRunning)(a5)
	.loc 1 2060 27
	bne	a5,zero,.L251
	.loc 1 2063 40
	li	a5,45
	sh	a5,12(sp)
	j	.L255
.L251:
	.loc 1 2065 33
	lui	a5,%hi(bEcatFirstOutputsReceived)
	lbu	a5,%lo(bEcatFirstOutputsReceived)(a5)
	.loc 1 2065 32
	bne	a5,zero,.L253
	.loc 1 2065 78 discriminator 1
	lui	a5,%hi(nPdOutputSize)
	lhu	a5,%lo(nPdOutputSize)(a5)
	.loc 1 2065 60 discriminator 1
	beq	a5,zero,.L253
	.loc 1 2068 40
	li	a5,27
	sh	a5,12(sp)
	j	.L255
.L253:
	.loc 1 2071 34
	lui	a5,%hi(bSmSyncSequenceValid)
	lbu	a5,%lo(bSmSyncSequenceValid)(a5)
	.loc 1 2071 33
	bne	a5,zero,.L254
	.loc 1 2074 40
	li	a5,26
	sh	a5,12(sp)
	j	.L255
.L254:
	.loc 1 2079 36
	li	a5,8
	sb	a5,15(sp)
	.loc 1 2080 40
	sh	zero,12(sp)
	.loc 1 2082 54
	lui	a5,%hi(bEcatOutputUpdateRunning)
	li	a4,1
	sb	a4,%lo(bEcatOutputUpdateRunning)(a5)
	j	.L255
.L250:
	.loc 1 2088 43
	lui	a5,%hi(nPdOutputSize)
	lhu	a5,%lo(nPdOutputSize)(a5)
	.loc 1 2088 28
	beq	a5,zero,.L256
	.loc 1 2090 40
	li	a5,27
	sh	a5,12(sp)
	j	.L255
.L256:
	.loc 1 2095 52
	lui	a5,%hi(u8LocalErrorState)
	lbu	a5,%lo(u8LocalErrorState)(a5)
	andi	a4,a5,15
	.loc 1 2095 32
	li	a5,4
	bne	a4,a5,.L257
	.loc 1 2098 44
	lui	a5,%hi(u16LocalErrorCode)
	lhu	a5,%lo(u16LocalErrorCode)(a5)
	sh	a5,12(sp)
	j	.L255
.L257:
	.loc 1 2104 40
	li	a5,8
	sb	a5,15(sp)
	.loc 1 2105 44
	sh	zero,12(sp)
	.loc 1 2107 58
	lui	a5,%hi(bEcatOutputUpdateRunning)
	li	a4,1
	sb	a4,%lo(bEcatOutputUpdateRunning)(a5)
.L255:
	.loc 1 2113 23
	lhu	a5,12(sp)
	beq	a5,zero,.L276
	.loc 1 2115 33
	lui	a5,%hi(bApplEsmPending)
	lbu	a5,%lo(bApplEsmPending)(a5)
	.loc 1 2115 32
	bne	a5,zero,.L259
	.loc 1 2117 33
	call	APPL_StopOutputHandler
.L259:
	.loc 1 2120 25
	call	StopOutputHandler
	.loc 1 2122 17
	j	.L276
.L238:
	.loc 1 2128 13
	lui	a5,%hi(nEcatStateTrans)
	lhu	a5,%lo(nEcatStateTrans)(a5)
	li	a4,72
	beq	a5,a4,.L261
	li	a4,72
	bgt	a5,a4,.L260
	li	a4,19
	bgt	a5,a4,.L262
	li	a4,18
	bge	a5,a4,.L263
	j	.L260
.L262:
	li	a4,36
	beq	a5,a4,.L264
	j	.L260
.L263:
	.loc 1 2132 24
	lui	a5,%hi(bApplEsmPending)
	lbu	a5,%lo(bApplEsmPending)(a5)
	.loc 1 2132 23
	beq	a5,zero,.L277
	.loc 1 2134 41
	lui	a5,%hi(bApplEsmPending)
	sb	zero,%lo(bApplEsmPending)(a5)
	.loc 1 2136 34
	call	APPL_StartMailboxHandler
	mv	a5,a0
	sh	a5,10(sp)
	.loc 1 2138 27
	lhu	a5,10(sp)
	bne	a5,zero,.L266
	.loc 1 2141 41
	lui	a5,%hi(bMbxRunning)
	li	a4,1
	sb	a4,%lo(bMbxRunning)(a5)
	.loc 1 2142 63
	lui	a5,%hi(nEcatStateTrans)
	lhu	a5,%lo(nEcatStateTrans)(a5)
	andi	a5,a5,0xff
	.loc 1 2142 36
	andi	a5,a5,15
	sb	a5,15(sp)
	.loc 1 2156 17
	j	.L277
.L266:
	.loc 1 2149 31
	lhu	a4,10(sp)
	li	a5,255
	beq	a4,a5,.L277
	.loc 1 2151 33
	call	APPL_StopMailboxHandler
	.loc 1 2152 33
	call	MBX_StopMailboxHandler
	.loc 1 2156 17
	j	.L277
.L264:
	.loc 1 2158 24
	lui	a5,%hi(bApplEsmPending)
	lbu	a5,%lo(bApplEsmPending)(a5)
	.loc 1 2158 23
	beq	a5,zero,.L278
	.loc 1 2160 41
	lui	a5,%hi(bApplEsmPending)
	sb	zero,%lo(bApplEsmPending)(a5)
	.loc 1 2161 34
	lui	a5,%hi(u16ALEventMask)
	addi	a0,a5,%lo(u16ALEventMask)
	call	APPL_StartInputHandler
	mv	a5,a0
	sh	a5,10(sp)
	.loc 1 2163 27
	lhu	a5,10(sp)
	bne	a5,zero,.L268
	.loc 1 2165 53
	lui	a5,%hi(bEcatInputUpdateRunning)
	li	a4,1
	sb	a4,%lo(bEcatInputUpdateRunning)(a5)
	.loc 1 2166 36
	li	a5,4
	sb	a5,15(sp)
	.loc 1 2180 17
	j	.L278
.L268:
	.loc 1 2173 31
	lhu	a4,10(sp)
	li	a5,255
	beq	a4,a5,.L278
	.loc 1 2175 33
	call	APPL_StopInputHandler
	.loc 1 2176 33
	call	StopInputHandler
	.loc 1 2180 17
	j	.L278
.L261:
	.loc 1 2182 23
	lui	a5,%hi(bApplEsmPending)
	lbu	a5,%lo(bApplEsmPending)(a5)
	.loc 1 2182 22
	beq	a5,zero,.L279
	.loc 1 2184 28
	lui	a5,%hi(bDcSyncActive)
	lbu	a5,%lo(bDcSyncActive)(a5)
	.loc 1 2184 27
	beq	a5,zero,.L270
	.loc 1 2186 60
	lui	a5,%hi(i16WaitForPllRunningTimeout)
	lh	a5,%lo(i16WaitForPllRunningTimeout)(a5)
	.loc 1 2186 31
	ble	a5,zero,.L279
	.loc 1 2186 95 discriminator 1
	lui	a5,%hi(i16WaitForPllRunningTimeout)
	lh	a4,%lo(i16WaitForPllRunningTimeout)(a5)
	lui	a5,%hi(i16WaitForPllRunningCnt)
	lh	a5,%lo(i16WaitForPllRunningCnt)(a5)
	.loc 1 2186 64 discriminator 1
	bgt	a4,a5,.L279
	.loc 1 2191 61
	lui	a5,%hi(i16WaitForPllRunningTimeout)
	sh	zero,%lo(i16WaitForPllRunningTimeout)(a5)
	.loc 1 2192 57
	lui	a5,%hi(i16WaitForPllRunningCnt)
	sh	zero,%lo(i16WaitForPllRunningCnt)(a5)
	.loc 1 2194 49
	lui	a5,%hi(bApplEsmPending)
	sb	zero,%lo(bApplEsmPending)(a5)
	.loc 1 2195 42
	call	APPL_StartOutputHandler
	mv	a5,a0
	sh	a5,10(sp)
	.loc 1 2197 35
	lhu	a5,10(sp)
	bne	a5,zero,.L271
	.loc 1 2200 62
	lui	a5,%hi(bEcatOutputUpdateRunning)
	li	a4,1
	sb	a4,%lo(bEcatOutputUpdateRunning)(a5)
	.loc 1 2201 44
	li	a5,8
	sb	a5,15(sp)
	.loc 1 2237 17
	j	.L279
.L271:
	.loc 1 2205 39
	lhu	a4,10(sp)
	li	a5,255
	beq	a4,a5,.L279
	.loc 1 2207 41
	call	APPL_StopOutputHandler
	.loc 1 2208 41
	call	StopOutputHandler
	.loc 1 2237 17
	j	.L279
.L270:
	.loc 1 2215 46
	lui	a5,%hi(nPdOutputSize)
	lhu	a5,%lo(nPdOutputSize)(a5)
	.loc 1 2215 31
	beq	a5,zero,.L272
	.loc 1 2215 51 discriminator 1
	lui	a5,%hi(bEcatFirstOutputsReceived)
	lbu	a5,%lo(bEcatFirstOutputsReceived)(a5)
	beq	a5,zero,.L279
.L272:
	.loc 1 2217 49
	lui	a5,%hi(bApplEsmPending)
	sb	zero,%lo(bApplEsmPending)(a5)
	.loc 1 2218 42
	call	APPL_StartOutputHandler
	mv	a5,a0
	sh	a5,10(sp)
	.loc 1 2220 35
	lhu	a5,10(sp)
	bne	a5,zero,.L273
	.loc 1 2223 62
	lui	a5,%hi(bEcatOutputUpdateRunning)
	li	a4,1
	sb	a4,%lo(bEcatOutputUpdateRunning)(a5)
	.loc 1 2224 44
	li	a5,8
	sb	a5,15(sp)
	.loc 1 2237 17
	j	.L279
.L273:
	.loc 1 2228 39
	lhu	a4,10(sp)
	li	a5,255
	beq	a4,a5,.L279
	.loc 1 2230 41
	call	APPL_StopOutputHandler
	.loc 1 2231 41
	call	StopOutputHandler
	.loc 1 2237 17
	j	.L279
.L276:
	.loc 1 2122 17
	nop
	j	.L260
.L277:
	.loc 1 2156 17
	nop
	j	.L260
.L278:
	.loc 1 2180 17
	nop
	j	.L260
.L279:
	.loc 1 2237 17
	nop
.L260:
	.loc 1 2241 11
	lbu	a5,15(sp)
	beq	a5,zero,.L275
	.loc 1 2244 38
	lui	a5,%hi(bEcatWaitForAlControlRes)
	sb	zero,%lo(bEcatWaitForAlControlRes)(a5)
	.loc 1 2246 16
	lhu	a5,12(sp)
	beq	a5,zero,.L274
	.loc 1 2248 24
	lbu	a5,15(sp)
	ori	a5,a5,16
	sb	a5,15(sp)
.L274:
	.loc 1 2251 13
	lhu	a4,12(sp)
	lbu	a5,15(sp)
	mv	a1,a4
	mv	a0,a5
	call	SetALStatus
.L275:
.LBE12:
	.loc 1 2254 1
	nop
	lw	ra,28(sp)
	.cfi_restore 1
	addi	sp,sp,32
	.cfi_def_cfa_offset 0
	jr	ra
	.cfi_endproc
.LFE246:
	.size	AL_ControlRes, .-AL_ControlRes
	.section	.text.DC_CheckWatchdog,"ax",@progbits
	.align	1
	.globl	DC_CheckWatchdog
	.type	DC_CheckWatchdog, @function
DC_CheckWatchdog:
.LFB247:
	.loc 1 2265 1
	.cfi_startproc
	.loc 1 2267 8
	lui	a5,%hi(bDcSyncActive)
	lbu	a5,%lo(bDcSyncActive)(a5)
	.loc 1 2267 7
	beq	a5,zero,.L292
	.loc 1 2267 22 discriminator 1
	lui	a5,%hi(bEcatInputUpdateRunning)
	lbu	a5,%lo(bEcatInputUpdateRunning)(a5)
	beq	a5,zero,.L292
	.loc 1 2270 26
	lui	a5,%hi(Sync0WdValue)
	lhu	a5,%lo(Sync0WdValue)(a5)
	.loc 1 2270 11
	beq	a5,zero,.L282
	.loc 1 2270 50 discriminator 1
	lui	a5,%hi(Sync0WdCounter)
	lhu	a4,%lo(Sync0WdCounter)(a5)
	lui	a5,%hi(Sync0WdValue)
	lhu	a5,%lo(Sync0WdValue)(a5)
	.loc 1 2270 31 discriminator 1
	bltu	a4,a5,.L282
	.loc 1 2273 28
	lui	a5,%hi(bDcRunning)
	sb	zero,%lo(bDcRunning)(a5)
	j	.L283
.L282:
	.loc 1 2277 31
	lui	a5,%hi(Sync0WdCounter)
	lhu	a4,%lo(Sync0WdCounter)(a5)
	lui	a5,%hi(Sync0WdValue)
	lhu	a5,%lo(Sync0WdValue)(a5)
	.loc 1 2277 15
	bgeu	a4,a5,.L284
	.loc 1 2279 32
	lui	a5,%hi(Sync0WdCounter)
	lhu	a5,%lo(Sync0WdCounter)(a5)
	addi	a5,a5,1
	zext.h	a4,a5
	lui	a5,%hi(Sync0WdCounter)
	sh	a4,%lo(Sync0WdCounter)(a5)
.L284:
	.loc 1 2282 24
	lui	a5,%hi(bDcRunning)
	li	a4,1
	sb	a4,%lo(bDcRunning)(a5)
.L283:
	.loc 1 2285 12
	lui	a5,%hi(bDcRunning)
	lbu	a5,%lo(bDcRunning)(a5)
	.loc 1 2285 11
	beq	a5,zero,.L285
	.loc 1 2288 29
	lui	a5,%hi(Sync1WdValue)
	lhu	a5,%lo(Sync1WdValue)(a5)
	.loc 1 2288 15
	beq	a5,zero,.L285
	.loc 1 2290 35
	lui	a5,%hi(Sync1WdCounter)
	lhu	a4,%lo(Sync1WdCounter)(a5)
	lui	a5,%hi(Sync1WdValue)
	lhu	a5,%lo(Sync1WdValue)(a5)
	.loc 1 2290 19
	bgeu	a4,a5,.L286
	.loc 1 2292 36
	lui	a5,%hi(Sync1WdCounter)
	lhu	a5,%lo(Sync1WdCounter)(a5)
	addi	a5,a5,1
	zext.h	a4,a5
	lui	a5,%hi(Sync1WdCounter)
	sh	a4,%lo(Sync1WdCounter)(a5)
	j	.L285
.L286:
	.loc 1 2297 32
	lui	a5,%hi(bDcRunning)
	sb	zero,%lo(bDcRunning)(a5)
.L285:
	.loc 1 2301 12
	lui	a5,%hi(bDcRunning)
	lbu	a5,%lo(bDcRunning)(a5)
	.loc 1 2301 11
	beq	a5,zero,.L287
	.loc 1 2304 30
	lui	a5,%hi(sErrorSettings)
	addi	a5,a5,%lo(sErrorSettings)
	lbu	a4,6(a5)
	lbu	a5,7(a5)
	slli	a5,a5,8
	or	a5,a5,a4
	zext.h	a5,a5
	.loc 1 2304 14
	beq	a5,zero,.L288
	.loc 1 2304 80 discriminator 1
	lui	a5,%hi(sSyncManOutPar)
	addi	a5,a5,%lo(sSyncManOutPar)
	lbu	a4,36(a5)
	lbu	a5,37(a5)
	slli	a5,a5,8
	or	a5,a5,a4
	zext.h	a4,a5
	.loc 1 2304 121 discriminator 1
	lui	a5,%hi(sErrorSettings)
	addi	a5,a5,%lo(sErrorSettings)
	lbu	a3,6(a5)
	lbu	a5,7(a5)
	slli	a5,a5,8
	or	a5,a5,a3
	zext.h	a5,a5
	.loc 1 2304 62 discriminator 1
	bgeu	a4,a5,.L289
.L288:
	.loc 1 2307 38
	lui	a5,%hi(bSmSyncSequenceValid)
	li	a4,1
	sb	a4,%lo(bSmSyncSequenceValid)(a5)
	.loc 1 2310 49
	lui	a5,%hi(i16WaitForPllRunningTimeout)
	lh	a5,%lo(i16WaitForPllRunningTimeout)(a5)
	.loc 1 2310 20
	ble	a5,zero,.L281
	.loc 1 2312 44
	lui	a5,%hi(i16WaitForPllRunningCnt)
	lh	a5,%lo(i16WaitForPllRunningCnt)(a5)
	zext.h	a5,a5
	addi	a5,a5,1
	zext.h	a5,a5
	sext.h	a4,a5
	lui	a5,%hi(i16WaitForPllRunningCnt)
	sh	a4,%lo(i16WaitForPllRunningCnt)(a5)
	.loc 1 2310 20
	j	.L281
.L289:
	.loc 1 2315 22
	lui	a5,%hi(bSmSyncSequenceValid)
	lbu	a5,%lo(bSmSyncSequenceValid)(a5)
	.loc 1 2315 21
	beq	a5,zero,.L292
	.loc 1 2317 42
	lui	a5,%hi(bSmSyncSequenceValid)
	sb	zero,%lo(bSmSyncSequenceValid)(a5)
	.loc 1 2320 49
	lui	a5,%hi(i16WaitForPllRunningTimeout)
	lh	a5,%lo(i16WaitForPllRunningTimeout)(a5)
	.loc 1 2320 20
	ble	a5,zero,.L292
	.loc 1 2322 45
	lui	a5,%hi(i16WaitForPllRunningCnt)
	sh	zero,%lo(i16WaitForPllRunningCnt)(a5)
	.loc 1 2331 1
	j	.L292
.L287:
	.loc 1 2326 17
	lui	a5,%hi(bSmSyncSequenceValid)
	lbu	a5,%lo(bSmSyncSequenceValid)(a5)
	.loc 1 2326 16
	beq	a5,zero,.L292
	.loc 1 2328 33
	lui	a5,%hi(bSmSyncSequenceValid)
	sb	zero,%lo(bSmSyncSequenceValid)(a5)
	.loc 1 2331 1
	j	.L292
.L281:
.L292:
	nop
	ret
	.cfi_endproc
.LFE247:
	.size	DC_CheckWatchdog, .-DC_CheckWatchdog
	.section	.text.CheckIfEcatError,"ax",@progbits
	.align	1
	.globl	CheckIfEcatError
	.type	CheckIfEcatError, @function
CheckIfEcatError:
.LFB248:
	.loc 1 2340 1
	.cfi_startproc
	addi	sp,sp,-32
	.cfi_def_cfa_offset 32
	sw	ra,28(sp)
	.cfi_offset 1, -4
	.loc 1 2343 20
	lui	a5,%hi(EcatWdValue)
	lhu	a5,%lo(EcatWdValue)(a5)
	.loc 1 2343 7
	beq	a5,zero,.L294
.LBB13:
	.loc 1 2346 14
	sw	zero,12(sp)
	.loc 1 2348 7
	lui	a5,%hi(pEsc)
	lw	a5,%lo(pEsc)(a5)
	addi	a5,a5,1088
	lw	a5,0(a5)
	sw	a5,12(sp)
	.loc 1 2352 24
	lw	a5,12(sp)
	andi	a5,a5,1
	.loc 1 2352 10
	bne	a5,zero,.L294
	.loc 1 2352 68 discriminator 1
	lui	a5,%hi(nPdOutputSize)
	lhu	a5,%lo(nPdOutputSize)(a5)
	.loc 1 2352 50 discriminator 1
	beq	a5,zero,.L294
	.loc 1 2356 14
	lui	a5,%hi(bEcatOutputUpdateRunning)
	lbu	a5,%lo(bEcatOutputUpdateRunning)(a5)
	.loc 1 2356 13
	beq	a5,zero,.L295
	.loc 1 2359 13
	li	a1,27
	li	a0,4
	call	AL_ControlInd
	.loc 1 2360 13
	j	.L293
.L295:
	.loc 1 2365 39
	lui	a5,%hi(bEcatFirstOutputsReceived)
	sb	zero,%lo(bEcatFirstOutputsReceived)(a5)
.L294:
.LBE13:
	.loc 1 2370 7
	lui	a5,%hi(bDcSyncActive)
	lbu	a5,%lo(bDcSyncActive)(a5)
	.loc 1 2370 6
	beq	a5,zero,.L293
	.loc 1 2372 11
	lui	a5,%hi(bEcatOutputUpdateRunning)
	lbu	a5,%lo(bEcatOutputUpdateRunning)(a5)
	.loc 1 2372 10
	beq	a5,zero,.L293
	.loc 1 2375 15
	lui	a5,%hi(bDcRunning)
	lbu	a5,%lo(bDcRunning)(a5)
	.loc 1 2375 14
	bne	a5,zero,.L297
	.loc 1 2377 16
	li	a1,44
	li	a0,4
	call	AL_ControlInd
	.loc 1 2378 16
	j	.L293
.L297:
	.loc 1 2380 20
	lui	a5,%hi(bSmSyncSequenceValid)
	lbu	a5,%lo(bSmSyncSequenceValid)(a5)
	.loc 1 2380 19
	bne	a5,zero,.L293
	.loc 1 2382 16
	li	a1,26
	li	a0,4
	call	AL_ControlInd
	.loc 1 2383 16
	nop
.L293:
	.loc 1 2388 1
	lw	ra,28(sp)
	.cfi_restore 1
	addi	sp,sp,32
	.cfi_def_cfa_offset 0
	jr	ra
	.cfi_endproc
.LFE248:
	.size	CheckIfEcatError, .-CheckIfEcatError
	.section	.text.ECAT_StateChange,"ax",@progbits
	.align	1
	.globl	ECAT_StateChange
	.type	ECAT_StateChange, @function
ECAT_StateChange:
.LFB249:
	.loc 1 2399 1
	.cfi_startproc
	addi	sp,sp,-48
	.cfi_def_cfa_offset 48
	sw	ra,44(sp)
	.cfi_offset 1, -4
	mv	a5,a0
	mv	a4,a1
	sb	a5,15(sp)
	mv	a5,a4
	sh	a5,12(sp)
	.loc 1 2400 11
	lbu	a5,15(sp)
	sb	a5,31(sp)
	.loc 1 2404 8
	lhu	a5,12(sp)
	beq	a5,zero,.L299
	.loc 1 2404 31 discriminator 1
	lbu	a5,15(sp)
	andi	a4,a5,15
	.loc 1 2404 27 discriminator 1
	li	a5,1
	beq	a4,a5,.L299
	.loc 1 2404 31 discriminator 2
	lbu	a5,15(sp)
	andi	a4,a5,15
	li	a5,2
	beq	a4,a5,.L299
	.loc 1 2404 31 is_stmt 0 discriminator 3
	lbu	a5,15(sp)
	andi	a4,a5,15
	li	a5,4
	beq	a4,a5,.L299
	.loc 1 2404 31 discriminator 4
	lbu	a5,15(sp)
	andi	a4,a5,15
	.loc 1 2404 30 is_stmt 1 discriminator 4
	li	a5,8
	bne	a4,a5,.L322
.L299:
	.loc 1 2410 34
	lui	a5,%hi(bEcatWaitForAlControlRes)
	lbu	a5,%lo(bEcatWaitForAlControlRes)(a5)
	.loc 1 2410 8
	bne	a5,zero,.L301
	.loc 1 2410 64 discriminator 1
	lui	a5,%hi(u8LocalErrorState)
	lbu	a5,%lo(u8LocalErrorState)(a5)
	.loc 1 2410 43 discriminator 1
	lbu	a4,15(sp)
	bne	a4,a5,.L301
	.loc 1 2410 97 discriminator 2
	lui	a5,%hi(u16LocalErrorCode)
	lhu	a5,%lo(u16LocalErrorCode)(a5)
	.loc 1 2410 76 discriminator 2
	lhu	a4,12(sp)
	beq	a4,a5,.L323
.L301:
	.loc 1 2417 8
	lui	a5,%hi(bEcatWaitForAlControlRes)
	lbu	a5,%lo(bEcatWaitForAlControlRes)(a5)
	.loc 1 2417 7
	beq	a5,zero,.L302
	.loc 1 2421 12
	lui	a5,%hi(bApplEsmPending)
	lbu	a5,%lo(bApplEsmPending)(a5)
	.loc 1 2421 11
	beq	a5,zero,.L303
	.loc 1 2425 15
	lhu	a5,12(sp)
	beq	a5,zero,.L304
	.loc 1 2428 47
	lbu	a5,15(sp)
	andi	a5,a5,15
	andi	a4,a5,0xff
	.loc 1 2428 35
	lui	a5,%hi(u8LocalErrorState)
	sb	a4,%lo(u8LocalErrorState)(a5)
	.loc 1 2430 35
	lui	a5,%hi(u16LocalErrorCode)
	lhu	a4,12(sp)
	sh	a4,%lo(u16LocalErrorCode)(a5)
	.loc 1 2431 35
	lui	a5,%hi(EsmTimeoutCounter)
	sh	zero,%lo(EsmTimeoutCounter)(a5)
	j	.L298
.L304:
	.loc 1 2435 35
	lui	a5,%hi(u8LocalErrorState)
	sb	zero,%lo(u8LocalErrorState)(a5)
	.loc 1 2436 35
	lui	a5,%hi(u16LocalErrorCode)
	lhu	a4,12(sp)
	sh	a4,%lo(u16LocalErrorCode)(a5)
	j	.L298
.L303:
	.loc 1 2443 15
	lhu	a5,12(sp)
	beq	a5,zero,.L305
	.loc 1 2446 47
	lbu	a5,15(sp)
	andi	a5,a5,15
	andi	a4,a5,0xff
	.loc 1 2446 35
	lui	a5,%hi(u8LocalErrorState)
	sb	a4,%lo(u8LocalErrorState)(a5)
	.loc 1 2448 35
	lui	a5,%hi(u16LocalErrorCode)
	lhu	a4,12(sp)
	sh	a4,%lo(u16LocalErrorCode)(a5)
	.loc 1 2451 17
	lui	a5,%hi(nEcatStateTrans)
	lhu	a5,%lo(nEcatStateTrans)(a5)
	li	a4,72
	beq	a5,a4,.L306
	li	a4,72
	bgt	a5,a4,.L307
	li	a4,19
	bgt	a5,a4,.L308
	li	a4,18
	bge	a5,a4,.L309
	j	.L307
.L308:
	li	a4,36
	beq	a5,a4,.L310
	j	.L307
.L309:
	.loc 1 2456 27
	call	APPL_StopMailboxHandler
	.loc 1 2457 27
	call	MBX_StopMailboxHandler
	.loc 1 2458 21
	j	.L307
.L310:
	.loc 1 2460 27
	call	APPL_StopInputHandler
	.loc 1 2461 27
	call	StopInputHandler
	.loc 1 2462 21
	j	.L307
.L306:
	.loc 1 2464 27
	call	APPL_StopOutputHandler
	.loc 1 2465 27
	call	StopOutputHandler
	.loc 1 2466 21
	nop
.L307:
	.loc 1 2470 27
	lui	a5,%hi(nEcatStateTrans)
	lhu	a5,%lo(nEcatStateTrans)(a5)
	srli	a5,a5,4
	zext.h	a5,a5
	.loc 1 2470 24
	sb	a5,31(sp)
	j	.L311
.L305:
	.loc 1 2476 17
	lui	a5,%hi(nEcatStateTrans)
	lhu	a5,%lo(nEcatStateTrans)(a5)
	li	a4,72
	beq	a5,a4,.L312
	li	a4,72
	bgt	a5,a4,.L313
	li	a4,19
	bgt	a5,a4,.L314
	li	a4,18
	bge	a5,a4,.L315
	j	.L313
.L314:
	li	a4,36
	beq	a5,a4,.L316
	j	.L313
.L315:
	.loc 1 2480 37
	lui	a5,%hi(bMbxRunning)
	li	a4,1
	sb	a4,%lo(bMbxRunning)(a5)
	.loc 1 2481 21
	j	.L313
.L316:
	.loc 1 2486 25
	lui	a5,%hi(u16ALEventMask)
	lhu	a5,%lo(u16ALEventMask)(a5)
	mv	a0,a5
	call	SetALEventMask
	.loc 1 2487 49
	lui	a5,%hi(bEcatInputUpdateRunning)
	li	a4,1
	sb	a4,%lo(bEcatInputUpdateRunning)(a5)
	.loc 1 2488 21
	j	.L313
.L312:
	.loc 1 2490 52
	lui	a5,%hi(bEcatOutputUpdateRunning)
	li	a4,1
	sb	a4,%lo(bEcatOutputUpdateRunning)(a5)
	.loc 1 2491 21
	nop
.L313:
	.loc 1 2496 51
	lui	a5,%hi(nEcatStateTrans)
	lhu	a5,%lo(nEcatStateTrans)(a5)
	andi	a5,a5,0xff
	.loc 1 2496 24
	andi	a5,a5,15
	sb	a5,31(sp)
.L311:
	.loc 1 2499 42
	lui	a5,%hi(bEcatWaitForAlControlRes)
	sb	zero,%lo(bEcatWaitForAlControlRes)(a5)
	.loc 1 2501 20
	lhu	a5,12(sp)
	beq	a5,zero,.L317
	.loc 1 2503 28
	lbu	a5,31(sp)
	ori	a5,a5,16
	sb	a5,31(sp)
	j	.L318
.L317:
	.loc 1 2506 44
	lui	a5,%hi(u8LocalErrorState)
	lbu	a5,%lo(u8LocalErrorState)(a5)
	.loc 1 2506 25
	beq	a5,zero,.L318
	.loc 1 2510 39
	lui	a5,%hi(u8LocalErrorState)
	sb	zero,%lo(u8LocalErrorState)(a5)
	.loc 1 2512 39
	lui	a5,%hi(u16LocalErrorCode)
	sh	zero,%lo(u16LocalErrorCode)(a5)
.L318:
	.loc 1 2516 17
	lhu	a4,12(sp)
	lbu	a5,31(sp)
	mv	a1,a4
	mv	a0,a5
	call	SetALStatus
	j	.L298
.L302:
	.loc 1 2523 12
	lhu	a5,12(sp)
	beq	a5,zero,.L319
	.loc 1 2523 46 discriminator 1
	lbu	a5,15(sp)
	andi	a4,a5,15
	.loc 1 2523 32 discriminator 1
	li	a5,8
	beq	a4,a5,.L319
	.loc 1 2523 76 discriminator 2
	lbu	a5,15(sp)
	andi	a4,a5,15
	.loc 1 2523 73 discriminator 2
	li	a5,1
	beq	a4,a5,.L320
	.loc 1 2523 76 discriminator 3
	lbu	a5,15(sp)
	andi	a4,a5,15
	li	a5,2
	beq	a4,a5,.L320
	.loc 1 2523 76 is_stmt 0 discriminator 4
	lbu	a5,15(sp)
	andi	a4,a5,15
	li	a5,4
	beq	a4,a5,.L320
	.loc 1 2523 76 discriminator 5
	lbu	a5,15(sp)
	andi	a4,a5,15
	li	a5,8
	bne	a4,a5,.L319
.L320:
	.loc 1 2525 43 is_stmt 1
	lbu	a5,15(sp)
	andi	a5,a5,15
	andi	a4,a5,0xff
	.loc 1 2525 31
	lui	a5,%hi(u8LocalErrorState)
	sb	a4,%lo(u8LocalErrorState)(a5)
	.loc 1 2527 31
	lui	a5,%hi(u16LocalErrorCode)
	lhu	a4,12(sp)
	sh	a4,%lo(u16LocalErrorCode)(a5)
	.loc 1 2530 28
	lui	a5,%hi(nAlStatus)
	lbu	a5,%lo(nAlStatus)(a5)
	andi	a4,a5,15
	.loc 1 2530 16
	li	a5,8
	bne	a4,a5,.L298
	.loc 1 2533 17
	lhu	a4,12(sp)
	lbu	a5,15(sp)
	mv	a1,a4
	mv	a0,a5
	call	AL_ControlInd
	.loc 1 2530 16
	j	.L298
.L319:
	.loc 1 2537 36
	lui	a5,%hi(u8LocalErrorState)
	lbu	a5,%lo(u8LocalErrorState)(a5)
	.loc 1 2537 17
	beq	a5,zero,.L298
	.loc 1 2540 31
	lui	a5,%hi(u8LocalErrorState)
	sb	zero,%lo(u8LocalErrorState)(a5)
	.loc 1 2541 31
	lui	a5,%hi(u16LocalErrorCode)
	sh	zero,%lo(u16LocalErrorCode)(a5)
	j	.L298
.L322:
	.loc 1 2406 9
	nop
	j	.L298
.L323:
	.loc 1 2412 9
	nop
.L298:
	.loc 1 2545 1
	lw	ra,44(sp)
	.cfi_restore 1
	addi	sp,sp,48
	.cfi_def_cfa_offset 0
	jr	ra
	.cfi_endproc
.LFE249:
	.size	ECAT_StateChange, .-ECAT_StateChange
	.section	.text.ECAT_Init,"ax",@progbits
	.align	1
	.globl	ECAT_Init
	.type	ECAT_Init, @function
ECAT_Init:
.LFB250:
	.loc 1 2554 1
	.cfi_startproc
	addi	sp,sp,-32
	.cfi_def_cfa_offset 32
	sw	ra,28(sp)
	.cfi_offset 1, -4
.LBB14:
	.loc 1 2558 12
	sw	zero,8(sp)
	.loc 1 2560 5
	lui	a5,%hi(pEsc)
	lw	a5,%lo(pEsc)(a5)
	addi	a5,a5,4
	lw	a5,0(a5)
	sw	a5,8(sp)
	.loc 1 2563 59
	lw	a5,8(sp)
	srli	a5,a5,8
	.loc 1 2563 19
	andi	a4,a5,0xff
	.loc 1 2563 17
	lui	a5,%hi(nMaxSyncMan)
	sb	a4,%lo(nMaxSyncMan)(a5)
	.loc 1 2566 63
	lw	a5,8(sp)
	srli	a5,a5,16
	.loc 1 2566 22
	zext.h	a5,a5
	slli	a5,a5,10
	zext.h	a4,a5
	.loc 1 2566 95
	li	a5,4096
	addi	a5,a5,-1
	add	a5,a4,a5
	zext.h	a4,a5
	.loc 1 2566 20
	lui	a5,%hi(nMaxEscAddress)
	sh	a4,%lo(nMaxEscAddress)(a5)
.LBE14:
	.loc 1 2570 16
	lui	a5,%hi(u16IdValue)
	sh	zero,%lo(u16IdValue)(a5)
	.loc 1 2574 5
	call	UpdateEEPROMLoadedState
	.loc 1 2577 12
	sb	zero,15(sp)
	.loc 1 2577 5
	j	.L325
.L326:
	.loc 1 2579 9
	lbu	a5,15(sp)
	mv	a0,a5
	call	DisableSyncManChannel
	.loc 1 2577 35 discriminator 3
	lbu	a5,15(sp)
	addi	a5,a5,1
	sb	a5,15(sp)
.L325:
	.loc 1 2577 19 discriminator 1
	lui	a5,%hi(nMaxSyncMan)
	lbu	a5,%lo(nMaxSyncMan)(a5)
	lbu	a4,15(sp)
	bltu	a4,a5,.L326
	.loc 1 2583 5
	call	MBX_Init
	.loc 1 2586 21
	lui	a5,%hi(bApplEsmPending)
	sb	zero,%lo(bApplEsmPending)(a5)
	.loc 1 2587 30
	lui	a5,%hi(bEcatWaitForAlControlRes)
	sb	zero,%lo(bEcatWaitForAlControlRes)(a5)
	.loc 1 2588 31
	lui	a5,%hi(bEcatFirstOutputsReceived)
	sb	zero,%lo(bEcatFirstOutputsReceived)(a5)
	.loc 1 2589 31
	lui	a5,%hi(bEcatOutputUpdateRunning)
	sb	zero,%lo(bEcatOutputUpdateRunning)(a5)
	.loc 1 2590 30
	lui	a5,%hi(bEcatInputUpdateRunning)
	sb	zero,%lo(bEcatInputUpdateRunning)(a5)
	.loc 1 2591 30
	lui	a5,%hi(bExplicitDevIdRequested)
	sb	zero,%lo(bExplicitDevIdRequested)(a5)
	.loc 1 2592 16
	lui	a5,%hi(bWdTrigger)
	sb	zero,%lo(bWdTrigger)(a5)
	.loc 1 2593 17
	lui	a5,%hi(EcatWdValue)
	sh	zero,%lo(EcatWdValue)(a5)
	.loc 1 2594 20
	lui	a5,%hi(Sync0WdCounter)
	sh	zero,%lo(Sync0WdCounter)(a5)
	.loc 1 2595 18
	lui	a5,%hi(Sync0WdValue)
	sh	zero,%lo(Sync0WdValue)(a5)
	.loc 1 2596 20
	lui	a5,%hi(Sync1WdCounter)
	sh	zero,%lo(Sync1WdCounter)(a5)
	.loc 1 2597 18
	lui	a5,%hi(Sync1WdValue)
	sh	zero,%lo(Sync1WdValue)(a5)
	.loc 1 2598 19
	lui	a5,%hi(bDcSyncActive)
	sb	zero,%lo(bDcSyncActive)(a5)
	.loc 1 2601 23
	lui	a5,%hi(u8LocalErrorState)
	sb	zero,%lo(u8LocalErrorState)(a5)
	.loc 1 2603 23
	lui	a5,%hi(u16LocalErrorCode)
	sh	zero,%lo(u16LocalErrorCode)(a5)
	.loc 1 2605 20
	lui	a5,%hi(u16ALEventMask)
	sh	zero,%lo(u16ALEventMask)(a5)
	.loc 1 2606 19
	lui	a5,%hi(nPdOutputSize)
	sh	zero,%lo(nPdOutputSize)(a5)
	.loc 1 2607 18
	lui	a5,%hi(nPdInputSize)
	sh	zero,%lo(nPdInputSize)(a5)
	.loc 1 2610 18
	lui	a5,%hi(nAlStatus)
	li	a4,1
	sb	a4,%lo(nAlStatus)(a5)
	.loc 1 2611 5
	lui	a5,%hi(nAlStatus)
	lbu	a5,%lo(nAlStatus)(a5)
	li	a1,0
	mv	a0,a5
	call	SetALStatus
	.loc 1 2612 21
	lui	a5,%hi(nEcatStateTrans)
	sh	zero,%lo(nEcatStateTrans)(a5)
	.loc 1 2613 20
	lui	a5,%hi(u8EcatErrorLed)
	sb	zero,%lo(u8EcatErrorLed)(a5)
	.loc 1 2615 20
	lui	a5,%hi(bEscIntEnabled)
	sb	zero,%lo(bEscIntEnabled)(a5)
	.loc 1 2618 5
	call	COE_Init
	.loc 1 2623 5
	li	a0,0
	call	ResetALEventMask
	.loc 1 2624 1
	nop
	lw	ra,28(sp)
	.cfi_restore 1
	addi	sp,sp,32
	.cfi_def_cfa_offset 0
	jr	ra
	.cfi_endproc
.LFE250:
	.size	ECAT_Init, .-ECAT_Init
	.section	.text.ECAT_Main,"ax",@progbits
	.align	1
	.globl	ECAT_Main
	.type	ECAT_Main, @function
ECAT_Main:
.LFB251:
	.loc 1 2632 1
	.cfi_startproc
	addi	sp,sp,-48
	.cfi_def_cfa_offset 48
	sw	ra,44(sp)
	.cfi_offset 1, -4
	.loc 1 2634 12
	sh	zero,18(sp)
	.loc 1 2636 13
	li	a5,65536
	sw	a5,24(sp)
	.loc 1 2637 13
	sw	zero,20(sp)
	.loc 1 2642 5
	call	MBX_Main
	.loc 1 2645 10
	lui	a5,%hi(bMbxRunning)
	lbu	a5,%lo(bMbxRunning)(a5)
	.loc 1 2645 8
	beq	a5,zero,.L328
	.loc 1 2651 9
	lui	a5,%hi(pEsc)
	lw	a4,%lo(pEsc)(a5)
	li	a5,4096
	addi	a5,a5,-2036
	add	a5,a4,a5
	lw	a5,0(a5)
	sw	a5,24(sp)
	.loc 1 2653 19
	lw	a5,24(sp)
	sw	a5,20(sp)
.L328:
	.loc 1 2658 18
	lui	a5,%hi(pEsc)
	lw	a5,%lo(pEsc)(a5)
	addi	a5,a5,544
	.loc 1 2658 16
	lhu	a5,0(a5)
	sh	a5,30(sp)
	.loc 1 2661 21
	lhu	a5,30(sp)
	andi	a5,a5,32
	.loc 1 2661 8
	beq	a5,zero,.L329
	.loc 1 2663 9
	call	EEPROM_CommandHandler
.L329:
	.loc 1 2666 21
	lhu	a5,30(sp)
	andi	a5,a5,1
	.loc 1 2666 8
	beq	a5,zero,.L330
	.loc 1 2666 44 discriminator 1
	lui	a5,%hi(bEcatWaitForAlControlRes)
	lbu	a5,%lo(bEcatWaitForAlControlRes)(a5)
	.loc 1 2666 41 discriminator 1
	bne	a5,zero,.L330
.LBB15:
	.loc 1 2670 16
	sw	zero,12(sp)
	.loc 1 2672 9
	lui	a5,%hi(pEsc)
	lw	a5,%lo(pEsc)(a5)
	addi	a5,a5,288
	lw	a5,0(a5)
	sw	a5,12(sp)
	.loc 1 2673 22
	lw	a5,12(sp)
	sh	a5,18(sp)
	.loc 1 2678 31
	lhu	a5,18(sp)
	andi	a5,a5,32
	.loc 1 2678 16
	beq	a5,zero,.L331
	.loc 1 2680 45
	lui	a5,%hi(bExplicitDevIdRequested)
	lbu	a5,%lo(bExplicitDevIdRequested)(a5)
	.loc 1 2680 20
	bne	a5,zero,.L332
	.loc 1 2682 34
	call	APPL_GetDeviceID
	mv	a5,a0
	mv	a4,a5
	.loc 1 2682 32 discriminator 1
	lui	a5,%hi(u16IdValue)
	sh	a4,%lo(u16IdValue)(a5)
.L332:
	.loc 1 2685 41
	lui	a5,%hi(bExplicitDevIdRequested)
	li	a4,1
	sb	a4,%lo(bExplicitDevIdRequested)(a5)
	j	.L333
.L331:
	.loc 1 2689 41
	lui	a5,%hi(bExplicitDevIdRequested)
	sb	zero,%lo(bExplicitDevIdRequested)(a5)
.L333:
	.loc 1 2695 24
	lhu	a5,30(sp)
	andi	a5,a5,-18
	sh	a5,30(sp)
	.loc 1 2697 13
	lhu	a5,18(sp)
	andi	a5,a5,0xff
	li	a1,0
	mv	a0,a5
	call	AL_ControlInd
.L330:
.LBE15:
	.loc 1 2703 22
	lhu	a5,30(sp)
	andi	a5,a5,16
	.loc 1 2703 8
	beq	a5,zero,.L334
	.loc 1 2703 44 discriminator 1
	lui	a5,%hi(bEcatWaitForAlControlRes)
	lbu	a5,%lo(bEcatWaitForAlControlRes)(a5)
	.loc 1 2703 41 discriminator 1
	bne	a5,zero,.L334
	.loc 1 2703 84 discriminator 2
	lui	a5,%hi(nAlStatus)
	lbu	a5,%lo(nAlStatus)(a5)
	andi	a5,a5,16
	.loc 1 2703 70 discriminator 2
	bne	a5,zero,.L334
	.loc 1 2703 119 discriminator 3
	lui	a5,%hi(nAlStatus)
	lbu	a5,%lo(nAlStatus)(a5)
	andi	a4,a5,-17
	.loc 1 2703 105 discriminator 3
	li	a5,1
	beq	a4,a5,.L334
	.loc 1 2707 20
	lhu	a5,30(sp)
	andi	a5,a5,-17
	sh	a5,30(sp)
	.loc 1 2710 9
	lui	a5,%hi(nAlStatus)
	lbu	a5,%lo(nAlStatus)(a5)
	andi	a5,a5,15
	andi	a5,a5,0xff
	li	a1,0
	mv	a0,a5
	call	AL_ControlInd
.L334:
	.loc 1 2713 8
	lui	a5,%hi(bEcatWaitForAlControlRes)
	lbu	a5,%lo(bEcatWaitForAlControlRes)(a5)
	.loc 1 2713 7
	beq	a5,zero,.L335
	.loc 1 2715 9
	call	AL_ControlRes
.L335:
	.loc 1 2723 10
	lui	a5,%hi(bMbxRunning)
	lbu	a5,%lo(bMbxRunning)(a5)
	.loc 1 2723 8
	beq	a5,zero,.L344
	.loc 1 2727 31
	lw	a4,24(sp)
	li	a5,65536
	and	a5,a4,a5
	.loc 1 2727 16
	bne	a5,zero,.L337
	.loc 1 2729 17
	lui	a5,%hi(nAlStatus)
	lbu	a5,%lo(nAlStatus)(a5)
	andi	a5,a5,15
	andi	a5,a5,0xff
	li	a1,0
	mv	a0,a5
	call	AL_ControlInd
.L337:
	.loc 1 2733 25
	lw	a4,20(sp)
	bseti	a5,zero,11
	and	a5,a4,a5
	.loc 1 2733 12
	bne	a5,zero,.L338
	.loc 1 2734 13
	lui	a5,%hi(bSendMbxIsFull)
	lbu	a5,%lo(bSendMbxIsFull)(a5)
	beq	a5,zero,.L338
	.loc 1 2740 22
	lui	a5,%hi(u32dummy)
	sw	zero,%lo(u32dummy)(a5)
	.loc 1 2741 13
	lui	a5,%hi(pEsc)
	lw	a4,%lo(pEsc)(a5)
	lui	a5,%hi(u16EscAddrSendMbx)
	lhu	a5,%lo(u16EscAddrSendMbx)(a5)
	srli	a5,a5,2
	zext.h	a5,a5
	slli	a5,a5,2
	add	a5,a4,a5
	lui	a4,%hi(u32dummy)
	lw	a4,%lo(u32dummy)(a4)
	sw	a4,0(a5)
	.loc 1 2745 24
	lhu	a5,30(sp)
	andi	a5,a5,-513
	sh	a5,30(sp)
	.loc 1 2746 13
	call	MBX_MailboxReadInd
.L338:
	.loc 1 2751 31
	lw	a4,24(sp)
	li	a5,131072
	and	a5,a4,a5
	.loc 1 2751 16
	beq	a5,zero,.L339
	.loc 1 2751 64 discriminator 1
	lui	a5,%hi(bMbxRepeatToggle)
	lbu	a5,%lo(bMbxRepeatToggle)(a5)
	.loc 1 2751 61 discriminator 1
	beq	a5,zero,.L340
.L339:
	.loc 1 2752 35
	lw	a4,24(sp)
	li	a5,131072
	and	a5,a4,a5
	.loc 1 2752 17
	bne	a5,zero,.L341
	.loc 1 2752 65 discriminator 1
	lui	a5,%hi(bMbxRepeatToggle)
	lbu	a5,%lo(bMbxRepeatToggle)(a5)
	beq	a5,zero,.L341
.L340:
	.loc 1 2756 17
	call	MBX_MailboxRepeatReq
	.loc 1 2759 21
	lui	a5,%hi(bMbxRepeatToggle)
	lbu	a5,%lo(bMbxRepeatToggle)(a5)
	.loc 1 2759 20
	beq	a5,zero,.L342
	.loc 1 2761 33
	lw	a4,24(sp)
	li	a5,33554432
	or	a5,a4,a5
	sw	a5,24(sp)
	j	.L343
.L342:
	.loc 1 2765 33
	lw	a4,24(sp)
	li	a5,-33554432
	addi	a5,a5,-1
	and	a5,a4,a5
	sw	a5,24(sp)
.L343:
	.loc 1 2769 17
	lui	a5,%hi(pEsc)
	lw	a4,%lo(pEsc)(a5)
	li	a5,4096
	addi	a5,a5,-2036
	add	a5,a4,a5
	lw	a4,24(sp)
	sw	a4,0(a5)
.L341:
	.loc 1 2774 22
	lui	a5,%hi(pEsc)
	lw	a5,%lo(pEsc)(a5)
	addi	a5,a5,544
	.loc 1 2774 20
	lhu	a5,0(a5)
	sh	a5,30(sp)
	.loc 1 2777 25
	lhu	a5,30(sp)
	andi	a5,a5,256
	.loc 1 2777 12
	beq	a5,zero,.L344
	.loc 1 2784 24
	lhu	a5,30(sp)
	andi	a5,a5,-257
	sh	a5,30(sp)
	.loc 1 2785 13
	call	MBX_CheckAndCopyMailbox
.L344:
	.loc 1 2789 1
	nop
	lw	ra,44(sp)
	.cfi_restore 1
	addi	sp,sp,48
	.cfi_def_cfa_offset 0
	jr	ra
	.cfi_endproc
.LFE251:
	.size	ECAT_Main, .-ECAT_Main
	.text
.Letext0:
	.file 2 "C:/Program Files/SEGGER/SEGGER Embedded Studio 8.26b/include/stdlib.h"
	.file 3 "C:/Program Files/SEGGER/SEGGER Embedded Studio 8.26b/include/stdint.h"
	.file 4 "C:\\sdk_env_v1.11.0\\hpm_sdk\\samples\\ethercat\\ecat_io\\SSC\\Src\\esc.h"
	.file 5 "../../../../../drivers/inc/hpm_common.h"
	.file 6 "../../../../../soc/HPM5E00/HPM5E31/hpm_sysctl_drv.h"
	.file 7 "../../../../../drivers/inc/hpm_romapi_xpi_nor_def.h"
	.file 8 "../../../port/hpm_ecat_hw.h"
	.file 9 "C:\\sdk_env_v1.11.0\\hpm_sdk\\samples\\ethercat\\ecat_io\\SSC\\Src\\ecatslv.h"
	.file 10 "C:\\sdk_env_v1.11.0\\hpm_sdk\\samples\\ethercat\\ecat_io\\SSC\\Src\\mailbox.h"
	.file 11 "C:\\sdk_env_v1.11.0\\hpm_sdk\\samples\\ethercat\\ecat_io\\SSC\\Src\\objdef.h"
	.file 12 "C:\\sdk_env_v1.11.0\\hpm_sdk\\samples\\ethercat\\ecat_io\\SSC\\Src\\ecatappl.h"
	.file 13 "C:\\sdk_env_v1.11.0\\hpm_sdk\\samples\\ethercat\\ecat_io\\SSC\\Src\\ecatcoe.h"
	.file 14 "C:\\sdk_env_v1.11.0\\hpm_sdk\\samples\\ethercat\\ecat_io\\SSC\\Src\\digital_io.h"
	.file 15 "C:/Program Files/SEGGER/SEGGER Embedded Studio 8.26b/include/string.h"